ccopy_reg
_reconstructor
p0
(c__main__
TreeNode
p1
c__builtin__
object
p2
Ntp3
Rp4
(dp5
S'leaf'
p6
I00
sS'name'
p7
S'zb'
p8
sS'dbcode'
p9
S'hgyd'
p10
sS'id'
p11
g8
sS'data_me'
p12
NsS'data'
p13
(lp14
(dp15
Vname
p16
V\u4ef7\u683c\u6307\u6570
p17
sVdbcode
p18
Vhgyd
p19
sVpid
p20
V
p21
sVisParent
p22
I01
sVwdcode
p23
Vzb
p24
sVid
p25
VA01
p26
sa(dp27
Vname
p28
V\u5de5\u4e1a
p29
sVdbcode
p30
Vhgyd
p31
sVpid
p32
g21
sVisParent
p33
I01
sVwdcode
p34
Vzb
p35
sVid
p36
VA02
p37
sa(dp38
Vname
p39
V\u56fa\u5b9a\u8d44\u4ea7\u6295\u8d44(\u4e0d\u542b\u519c\u6237)
p40
sVdbcode
p41
Vhgyd
p42
sVpid
p43
g21
sVisParent
p44
I01
sVwdcode
p45
Vzb
p46
sVid
p47
VA03
p48
sa(dp49
Vname
p50
V\u623f\u5730\u4ea7
p51
sVdbcode
p52
Vhgyd
p53
sVpid
p54
g21
sVisParent
p55
I01
sVwdcode
p56
Vzb
p57
sVid
p58
VA04
p59
sa(dp60
Vname
p61
V\u56fd\u5185\u8d38\u6613
p62
sVdbcode
p63
Vhgyd
p64
sVpid
p65
g21
sVisParent
p66
I01
sVwdcode
p67
Vzb
p68
sVid
p69
VA05
p70
sa(dp71
Vname
p72
V\u5bf9\u5916\u7ecf\u6d4e
p73
sVdbcode
p74
Vhgyd
p75
sVpid
p76
g21
sVisParent
p77
I01
sVwdcode
p78
Vzb
p79
sVid
p80
VA06
p81
sa(dp82
Vname
p83
V\u4ea4\u901a\u8fd0\u8f93
p84
sVdbcode
p85
Vhgyd
p86
sVpid
p87
g21
sVisParent
p88
I01
sVwdcode
p89
Vzb
p90
sVid
p91
VA07
p92
sa(dp93
Vname
p94
V\u90ae\u7535\u901a\u4fe1
p95
sVdbcode
p96
Vhgyd
p97
sVpid
p98
g21
sVisParent
p99
I00
sVwdcode
p100
Vzb
p101
sVid
p102
VA08
p103
sa(dp104
Vname
p105
V\u91c7\u8d2d\u7ecf\u7406\u6307\u6570
p106
sVdbcode
p107
Vhgyd
p108
sVpid
p109
g21
sVisParent
p110
I01
sVwdcode
p111
Vzb
p112
sVid
p113
VA09
p114
sa(dp115
Vname
p116
V\u8d22\u653f
p117
sVdbcode
p118
Vhgyd
p119
sVpid
p120
g21
sVisParent
p121
I01
sVwdcode
p122
Vzb
p123
sVid
p124
VA0A
p125
sa(dp126
Vname
p127
V\u91d1\u878d
p128
sVdbcode
p129
Vhgyd
p130
sVpid
p131
g21
sVisParent
p132
I01
sVwdcode
p133
Vzb
p134
sVid
p135
VA0B
p136
sasS'children'
p137
(lp138
g0
(g1
g2
Ntp139
Rp140
(dp141
g6
I00
sg7
g17
sg9
g10
sg11
g26
sg12
Nsg13
(lp142
(dp143
Vname
p144
V\u5c45\u6c11\u6d88\u8d39\u4ef7\u683c\u5206\u7c7b\u6307\u6570(\u4e0a\u5e74\u540c\u6708=100)
p145
sVdbcode
p146
Vhgyd
p147
sVpid
p148
VA01
p149
sVisParent
p150
I01
sVwdcode
p151
Vzb
p152
sVid
p153
VA0101
p154
sa(dp155
Vname
p156
V\u5c45\u6c11\u6d88\u8d39\u4ef7\u683c\u5206\u7c7b\u6307\u6570(\u4e0a\u5e74\u540c\u671f=100)
p157
sVdbcode
p158
Vhgyd
p159
sVpid
p160
VA01
p161
sVisParent
p162
I01
sVwdcode
p163
Vzb
p164
sVid
p165
VA0102
p166
sa(dp167
Vname
p168
V\u5c45\u6c11\u6d88\u8d39\u4ef7\u683c\u5206\u7c7b\u6307\u6570(\u4e0a\u6708=100)
p169
sVdbcode
p170
Vhgyd
p171
sVpid
p172
VA01
p173
sVisParent
p174
I01
sVwdcode
p175
Vzb
p176
sVid
p177
VA0103
p178
sa(dp179
Vname
p180
V\u5546\u54c1\u96f6\u552e\u4ef7\u683c\u5206\u7c7b\u6307\u6570(\u4e0a\u5e74\u540c\u6708=100)
p181
sVdbcode
p182
Vhgyd
p183
sVpid
p184
VA01
p185
sVisParent
p186
I01
sVwdcode
p187
Vzb
p188
sVid
p189
VA0104
p190
sa(dp191
Vname
p192
V\u5546\u54c1\u96f6\u552e\u4ef7\u683c\u5206\u7c7b\u6307\u6570(\u4e0a\u5e74\u540c\u671f=100)
p193
sVdbcode
p194
Vhgyd
p195
sVpid
p196
VA01
p197
sVisParent
p198
I01
sVwdcode
p199
Vzb
p200
sVid
p201
VA0105
p202
sa(dp203
Vname
p204
V\u5546\u54c1\u96f6\u552e\u4ef7\u683c\u5206\u7c7b\u6307\u6570(\u4e0a\u6708=100)
p205
sVdbcode
p206
Vhgyd
p207
sVpid
p208
VA01
p209
sVisParent
p210
I01
sVwdcode
p211
Vzb
p212
sVid
p213
VA0106
p214
sa(dp215
Vname
p216
V\u5de5\u4e1a\u751f\u4ea7\u8005\u8d2d\u8fdb\u4ef7\u683c\u6307\u6570
p217
sVdbcode
p218
Vhgyd
p219
sVpid
p220
VA01
p221
sVisParent
p222
I01
sVwdcode
p223
Vzb
p224
sVid
p225
VA0107
p226
sa(dp227
Vname
p228
V\u5de5\u4e1a\u751f\u4ea7\u8005\u51fa\u5382\u4ef7\u683c\u5206\u7c7b\u6307\u6570
p229
sVdbcode
p230
Vhgyd
p231
sVpid
p232
VA01
p233
sVisParent
p234
I01
sVwdcode
p235
Vzb
p236
sVid
p237
VA0108
p238
sa(dp239
Vname
p240
V\u5206\u884c\u4e1a\u5de5\u4e1a\u751f\u4ea7\u8005\u51fa\u5382\u4ef7\u683c\u6307\u6570(\u4e0a\u5e74\u540c\u6708=100)(2007-2013)
p241
sVdbcode
p242
Vhgyd
p243
sVpid
p244
VA01
p245
sVisParent
p246
I00
sVwdcode
p247
Vzb
p248
sVid
p249
VA0109
p250
sa(dp251
Vname
p252
V\u5206\u884c\u4e1a\u5de5\u4e1a\u751f\u4ea7\u8005\u51fa\u5382\u4ef7\u683c\u6307\u6570(\u4e0a\u5e74\u540c\u6708=100)(2014-\u81f3\u4eca)
p253
sVdbcode
p254
Vhgyd
p255
sVpid
p256
VA01
p257
sVisParent
p258
I00
sVwdcode
p259
Vzb
p260
sVid
p261
VA010A
p262
sasg137
(lp263
g0
(g1
g2
Ntp264
Rp265
(dp266
g6
I00
sg7
g145
sg9
g10
sg11
g154
sg12
Nsg13
(lp267
(dp268
Vname
p269
V\u5168\u56fd\u5c45\u6c11\u6d88\u8d39\u4ef7\u683c\u5206\u7c7b\u6307\u6570(\u4e0a\u5e74\u540c\u6708=100)(2016-)
p270
sVdbcode
p271
Vhgyd
p272
sVpid
p273
VA0101
p274
sVisParent
p275
I00
sVwdcode
p276
Vzb
p277
sVid
p278
VA010101
p279
sa(dp280
Vname
p281
V\u5168\u56fd\u5c45\u6c11\u6d88\u8d39\u4ef7\u683c\u5206\u7c7b\u6307\u6570(\u4e0a\u5e74\u540c\u6708=100)(-2015)
p282
sVdbcode
p283
Vhgyd
p284
sVpid
p285
VA0101
p286
sVisParent
p287
I00
sVwdcode
p288
Vzb
p289
sVid
p290
VA010102
p291
sa(dp292
Vname
p293
V\u5168\u56fd\u98df\u54c1\u7c7b\u5c45\u6c11\u6d88\u8d39\u4ef7\u683c\u6307\u6570(\u4e0a\u5e74\u540c\u6708=100)
p294
sVdbcode
p295
Vhgyd
p296
sVpid
p297
VA0101
p298
sVisParent
p299
I00
sVwdcode
p300
Vzb
p301
sVid
p302
VA010103
p303
sa(dp304
Vname
p305
V\u57ce\u5e02\u5c45\u6c11\u6d88\u8d39\u4ef7\u683c\u5206\u7c7b\u6307\u6570(\u4e0a\u5e74\u540c\u6708=100)(2016-)
p306
sVdbcode
p307
Vhgyd
p308
sVpid
p309
VA0101
p310
sVisParent
p311
I00
sVwdcode
p312
Vzb
p313
sVid
p314
VA010104
p315
sa(dp316
Vname
p317
V\u57ce\u5e02\u5c45\u6c11\u6d88\u8d39\u4ef7\u683c\u5206\u7c7b\u6307\u6570(\u4e0a\u5e74\u540c\u6708=100)(-2015)
p318
sVdbcode
p319
Vhgyd
p320
sVpid
p321
VA0101
p322
sVisParent
p323
I00
sVwdcode
p324
Vzb
p325
sVid
p326
VA010105
p327
sa(dp328
Vname
p329
V\u98df\u54c1\u7c7b\u57ce\u5e02\u5c45\u6c11\u6d88\u8d39\u4ef7\u683c\u6307\u6570(\u4e0a\u5e74\u540c\u6708=100)
p330
sVdbcode
p331
Vhgyd
p332
sVpid
p333
VA0101
p334
sVisParent
p335
I00
sVwdcode
p336
Vzb
p337
sVid
p338
VA010106
p339
sa(dp340
Vname
p341
V\u519c\u6751\u5c45\u6c11\u6d88\u8d39\u4ef7\u683c\u5206\u7c7b\u6307\u6570(\u4e0a\u5e74\u540c\u6708=100)(2016-)
p342
sVdbcode
p343
Vhgyd
p344
sVpid
p345
VA0101
p346
sVisParent
p347
I00
sVwdcode
p348
Vzb
p349
sVid
p350
VA010107
p351
sa(dp352
Vname
p353
V\u519c\u6751\u5c45\u6c11\u6d88\u8d39\u4ef7\u683c\u5206\u7c7b\u6307\u6570(\u4e0a\u5e74\u540c\u6708=100)(-2015)
p354
sVdbcode
p355
Vhgyd
p356
sVpid
p357
VA0101
p358
sVisParent
p359
I00
sVwdcode
p360
Vzb
p361
sVid
p362
VA010108
p363
sa(dp364
Vname
p365
V\u98df\u54c1\u7c7b\u519c\u6751\u5c45\u6c11\u6d88\u8d39\u4ef7\u683c\u6307\u6570(\u4e0a\u5e74\u540c\u6708=100)
p366
sVdbcode
p367
Vhgyd
p368
sVpid
p369
VA0101
p370
sVisParent
p371
I00
sVwdcode
p372
Vzb
p373
sVid
p374
VA010109
p375
sasg137
(lp376
g0
(g1
g2
Ntp377
Rp378
(dp379
g6
I01
sg7
g270
sg9
g10
sg11
g279
sg12
Nsg13
(lp380
sg137
(lp381
sbag0
(g1
g2
Ntp382
Rp383
(dp384
g6
I01
sg7
g282
sg9
g10
sg11
g291
sg12
Nsg13
(lp385
sg137
(lp386
sbag0
(g1
g2
Ntp387
Rp388
(dp389
g6
I01
sg7
g294
sg9
g10
sg11
g303
sg12
Nsg13
(lp390
sg137
(lp391
sbag0
(g1
g2
Ntp392
Rp393
(dp394
g6
I01
sg7
g306
sg9
g10
sg11
g315
sg12
Nsg13
(lp395
sg137
(lp396
sbag0
(g1
g2
Ntp397
Rp398
(dp399
g6
I01
sg7
g318
sg9
g10
sg11
g327
sg12
Nsg13
(lp400
sg137
(lp401
sbag0
(g1
g2
Ntp402
Rp403
(dp404
g6
I01
sg7
g330
sg9
g10
sg11
g339
sg12
Nsg13
(lp405
sg137
(lp406
sbag0
(g1
g2
Ntp407
Rp408
(dp409
g6
I01
sg7
g342
sg9
g10
sg11
g351
sg12
Nsg13
(lp410
sg137
(lp411
sbag0
(g1
g2
Ntp412
Rp413
(dp414
g6
I01
sg7
g354
sg9
g10
sg11
g363
sg12
Nsg13
(lp415
sg137
(lp416
sbag0
(g1
g2
Ntp417
Rp418
(dp419
g6
I01
sg7
g366
sg9
g10
sg11
g375
sg12
Nsg13
(lp420
sg137
(lp421
sbasbag0
(g1
g2
Ntp422
Rp423
(dp424
g6
I00
sg7
g157
sg9
g10
sg11
g166
sg12
Nsg13
(lp425
(dp426
Vname
p427
V\u5168\u56fd\u5c45\u6c11\u6d88\u8d39\u4ef7\u683c\u5206\u7c7b\u6307\u6570(\u4e0a\u5e74\u540c\u671f=100)(2016-)
p428
sVdbcode
p429
Vhgyd
p430
sVpid
p431
VA0102
p432
sVisParent
p433
I00
sVwdcode
p434
Vzb
p435
sVid
p436
VA010201
p437
sa(dp438
Vname
p439
V\u5168\u56fd\u5c45\u6c11\u6d88\u8d39\u4ef7\u683c\u5206\u7c7b\u6307\u6570(\u4e0a\u5e74\u540c\u671f=100)(-2015)
p440
sVdbcode
p441
Vhgyd
p442
sVpid
p443
VA0102
p444
sVisParent
p445
I00
sVwdcode
p446
Vzb
p447
sVid
p448
VA010202
p449
sa(dp450
Vname
p451
V\u5168\u56fd\u98df\u54c1\u7c7b\u5c45\u6c11\u6d88\u8d39\u4ef7\u683c\u6307\u6570(\u4e0a\u5e74\u540c\u671f=100)
p452
sVdbcode
p453
Vhgyd
p454
sVpid
p455
VA0102
p456
sVisParent
p457
I00
sVwdcode
p458
Vzb
p459
sVid
p460
VA010203
p461
sa(dp462
Vname
p463
V\u57ce\u5e02\u5c45\u6c11\u6d88\u8d39\u4ef7\u683c\u5206\u7c7b\u6307\u6570(\u4e0a\u5e74\u540c\u671f=100)(2016-)
p464
sVdbcode
p465
Vhgyd
p466
sVpid
p467
VA0102
p468
sVisParent
p469
I00
sVwdcode
p470
Vzb
p471
sVid
p472
VA010204
p473
sa(dp474
Vname
p475
V\u57ce\u5e02\u5c45\u6c11\u6d88\u8d39\u4ef7\u683c\u5206\u7c7b\u6307\u6570(\u4e0a\u5e74\u540c\u671f=100)(-2015)
p476
sVdbcode
p477
Vhgyd
p478
sVpid
p479
VA0102
p480
sVisParent
p481
I00
sVwdcode
p482
Vzb
p483
sVid
p484
VA010205
p485
sa(dp486
Vname
p487
V\u98df\u54c1\u7c7b\u57ce\u5e02\u5c45\u6c11\u6d88\u8d39\u4ef7\u683c\u6307\u6570(\u4e0a\u5e74\u540c\u671f=100)
p488
sVdbcode
p489
Vhgyd
p490
sVpid
p491
VA0102
p492
sVisParent
p493
I00
sVwdcode
p494
Vzb
p495
sVid
p496
VA010206
p497
sa(dp498
Vname
p499
V\u519c\u6751\u5c45\u6c11\u6d88\u8d39\u4ef7\u683c\u5206\u7c7b\u6307\u6570(\u4e0a\u5e74\u540c\u671f=100)(2016-)
p500
sVdbcode
p501
Vhgyd
p502
sVpid
p503
VA0102
p504
sVisParent
p505
I00
sVwdcode
p506
Vzb
p507
sVid
p508
VA010207
p509
sa(dp510
Vname
p511
V\u519c\u6751\u5c45\u6c11\u6d88\u8d39\u4ef7\u683c\u5206\u7c7b\u6307\u6570(\u4e0a\u5e74\u540c\u671f=100)(-2015)
p512
sVdbcode
p513
Vhgyd
p514
sVpid
p515
VA0102
p516
sVisParent
p517
I00
sVwdcode
p518
Vzb
p519
sVid
p520
VA010208
p521
sa(dp522
Vname
p523
V\u98df\u54c1\u7c7b\u519c\u6751\u5c45\u6c11\u6d88\u8d39\u4ef7\u683c\u6307\u6570(\u4e0a\u5e74\u540c\u671f=100)
p524
sVdbcode
p525
Vhgyd
p526
sVpid
p527
VA0102
p528
sVisParent
p529
I00
sVwdcode
p530
Vzb
p531
sVid
p532
VA010209
p533
sasg137
(lp534
g0
(g1
g2
Ntp535
Rp536
(dp537
g6
I01
sg7
g428
sg9
g10
sg11
g437
sg12
Nsg13
(lp538
sg137
(lp539
sbag0
(g1
g2
Ntp540
Rp541
(dp542
g6
I01
sg7
g440
sg9
g10
sg11
g449
sg12
Nsg13
(lp543
sg137
(lp544
sbag0
(g1
g2
Ntp545
Rp546
(dp547
g6
I01
sg7
g452
sg9
g10
sg11
g461
sg12
Nsg13
(lp548
sg137
(lp549
sbag0
(g1
g2
Ntp550
Rp551
(dp552
g6
I01
sg7
g464
sg9
g10
sg11
g473
sg12
Nsg13
(lp553
sg137
(lp554
sbag0
(g1
g2
Ntp555
Rp556
(dp557
g6
I01
sg7
g476
sg9
g10
sg11
g485
sg12
Nsg13
(lp558
sg137
(lp559
sbag0
(g1
g2
Ntp560
Rp561
(dp562
g6
I01
sg7
g488
sg9
g10
sg11
g497
sg12
Nsg13
(lp563
sg137
(lp564
sbag0
(g1
g2
Ntp565
Rp566
(dp567
g6
I01
sg7
g500
sg9
g10
sg11
g509
sg12
Nsg13
(lp568
sg137
(lp569
sbag0
(g1
g2
Ntp570
Rp571
(dp572
g6
I01
sg7
g512
sg9
g10
sg11
g521
sg12
Nsg13
(lp573
sg137
(lp574
sbag0
(g1
g2
Ntp575
Rp576
(dp577
g6
I01
sg7
g524
sg9
g10
sg11
g533
sg12
Nsg13
(lp578
sg137
(lp579
sbasbag0
(g1
g2
Ntp580
Rp581
(dp582
g6
I00
sg7
g169
sg9
g10
sg11
g178
sg12
Nsg13
(lp583
(dp584
Vname
p585
V\u5168\u56fd\u5c45\u6c11\u6d88\u8d39\u4ef7\u683c\u5206\u7c7b\u6307\u6570(\u4e0a\u6708=100)(2016-)
p586
sVdbcode
p587
Vhgyd
p588
sVpid
p589
VA0103
p590
sVisParent
p591
I00
sVwdcode
p592
Vzb
p593
sVid
p594
VA010301
p595
sa(dp596
Vname
p597
V\u5168\u56fd\u5c45\u6c11\u6d88\u8d39\u4ef7\u683c\u5206\u7c7b\u6307\u6570(\u4e0a\u6708=100)(-2015)
p598
sVdbcode
p599
Vhgyd
p600
sVpid
p601
VA0103
p602
sVisParent
p603
I00
sVwdcode
p604
Vzb
p605
sVid
p606
VA010302
p607
sa(dp608
Vname
p609
V\u98df\u54c1\u7c7b\u5c45\u6c11\u6d88\u8d39\u4ef7\u683c\u6307\u6570(\u4e0a\u6708=100)
p610
sVdbcode
p611
Vhgyd
p612
sVpid
p613
VA0103
p614
sVisParent
p615
I00
sVwdcode
p616
Vzb
p617
sVid
p618
VA010303
p619
sa(dp620
Vname
p621
V\u57ce\u5e02\u5c45\u6c11\u6d88\u8d39\u4ef7\u683c\u5206\u7c7b\u6307\u6570(\u4e0a\u6708=100)(2016-)
p622
sVdbcode
p623
Vhgyd
p624
sVpid
p625
VA0103
p626
sVisParent
p627
I00
sVwdcode
p628
Vzb
p629
sVid
p630
VA010304
p631
sa(dp632
Vname
p633
V\u57ce\u5e02\u5c45\u6c11\u6d88\u8d39\u4ef7\u683c\u5206\u7c7b\u6307\u6570(\u4e0a\u6708=100)(-2015)
p634
sVdbcode
p635
Vhgyd
p636
sVpid
p637
VA0103
p638
sVisParent
p639
I00
sVwdcode
p640
Vzb
p641
sVid
p642
VA010305
p643
sa(dp644
Vname
p645
V\u98df\u54c1\u7c7b\u57ce\u5e02\u5c45\u6c11\u6d88\u8d39\u4ef7\u683c\u6307\u6570(\u4e0a\u6708=100)
p646
sVdbcode
p647
Vhgyd
p648
sVpid
p649
VA0103
p650
sVisParent
p651
I00
sVwdcode
p652
Vzb
p653
sVid
p654
VA010306
p655
sa(dp656
Vname
p657
V\u519c\u6751\u5c45\u6c11\u6d88\u8d39\u4ef7\u683c\u5206\u7c7b\u6307\u6570(\u4e0a\u6708=100)(2016-)
p658
sVdbcode
p659
Vhgyd
p660
sVpid
p661
VA0103
p662
sVisParent
p663
I00
sVwdcode
p664
Vzb
p665
sVid
p666
VA010307
p667
sa(dp668
Vname
p669
V\u519c\u6751\u5c45\u6c11\u6d88\u8d39\u4ef7\u683c\u5206\u7c7b\u6307\u6570(\u4e0a\u6708=100)(-2015)
p670
sVdbcode
p671
Vhgyd
p672
sVpid
p673
VA0103
p674
sVisParent
p675
I00
sVwdcode
p676
Vzb
p677
sVid
p678
VA010308
p679
sa(dp680
Vname
p681
V\u98df\u54c1\u7c7b\u519c\u6751\u5c45\u6c11\u6d88\u8d39\u4ef7\u683c\u6307\u6570(\u4e0a\u6708=100)
p682
sVdbcode
p683
Vhgyd
p684
sVpid
p685
VA0103
p686
sVisParent
p687
I00
sVwdcode
p688
Vzb
p689
sVid
p690
VA010309
p691
sasg137
(lp692
g0
(g1
g2
Ntp693
Rp694
(dp695
g6
I01
sg7
g586
sg9
g10
sg11
g595
sg12
Nsg13
(lp696
sg137
(lp697
sbag0
(g1
g2
Ntp698
Rp699
(dp700
g6
I01
sg7
g598
sg9
g10
sg11
g607
sg12
Nsg13
(lp701
sg137
(lp702
sbag0
(g1
g2
Ntp703
Rp704
(dp705
g6
I01
sg7
g610
sg9
g10
sg11
g619
sg12
Nsg13
(lp706
sg137
(lp707
sbag0
(g1
g2
Ntp708
Rp709
(dp710
g6
I01
sg7
g622
sg9
g10
sg11
g631
sg12
Nsg13
(lp711
sg137
(lp712
sbag0
(g1
g2
Ntp713
Rp714
(dp715
g6
I01
sg7
g634
sg9
g10
sg11
g643
sg12
Nsg13
(lp716
sg137
(lp717
sbag0
(g1
g2
Ntp718
Rp719
(dp720
g6
I01
sg7
g646
sg9
g10
sg11
g655
sg12
Nsg13
(lp721
sg137
(lp722
sbag0
(g1
g2
Ntp723
Rp724
(dp725
g6
I01
sg7
g658
sg9
g10
sg11
g667
sg12
Nsg13
(lp726
sg137
(lp727
sbag0
(g1
g2
Ntp728
Rp729
(dp730
g6
I01
sg7
g670
sg9
g10
sg11
g679
sg12
Nsg13
(lp731
sg137
(lp732
sbag0
(g1
g2
Ntp733
Rp734
(dp735
g6
I01
sg7
g682
sg9
g10
sg11
g691
sg12
Nsg13
(lp736
sg137
(lp737
sbasbag0
(g1
g2
Ntp738
Rp739
(dp740
g6
I00
sg7
g181
sg9
g10
sg11
g190
sg12
Nsg13
(lp741
(dp742
Vname
p743
V\u5546\u54c1\u96f6\u552e\u4ef7\u683c\u6307\u6570(\u4e0a\u5e74\u540c\u6708=100)
p744
sVdbcode
p745
Vhgyd
p746
sVpid
p747
VA0104
p748
sVisParent
p749
I00
sVwdcode
p750
Vzb
p751
sVid
p752
VA010401
p753
sa(dp754
Vname
p755
V\u57ce\u5e02\u5546\u54c1\u96f6\u552e\u4ef7\u683c\u6307\u6570(\u4e0a\u5e74\u540c\u6708=100)
p756
sVdbcode
p757
Vhgyd
p758
sVpid
p759
VA0104
p760
sVisParent
p761
I00
sVwdcode
p762
Vzb
p763
sVid
p764
VA010402
p765
sa(dp766
Vname
p767
V\u519c\u6751\u5546\u54c1\u96f6\u552e\u4ef7\u683c\u6307\u6570(\u4e0a\u5e74\u540c\u6708=100)
p768
sVdbcode
p769
Vhgyd
p770
sVpid
p771
VA0104
p772
sVisParent
p773
I00
sVwdcode
p774
Vzb
p775
sVid
p776
VA010403
p777
sasg137
(lp778
g0
(g1
g2
Ntp779
Rp780
(dp781
g6
I01
sg7
g744
sg9
g10
sg11
g753
sg12
Nsg13
(lp782
sg137
(lp783
sbag0
(g1
g2
Ntp784
Rp785
(dp786
g6
I01
sg7
g756
sg9
g10
sg11
g765
sg12
Nsg13
(lp787
sg137
(lp788
sbag0
(g1
g2
Ntp789
Rp790
(dp791
g6
I01
sg7
g768
sg9
g10
sg11
g777
sg12
Nsg13
(lp792
sg137
(lp793
sbasbag0
(g1
g2
Ntp794
Rp795
(dp796
g6
I00
sg7
g193
sg9
g10
sg11
g202
sg12
Nsg13
(lp797
(dp798
Vname
p799
V\u5546\u54c1\u96f6\u552e\u4ef7\u683c\u6307\u6570(\u4e0a\u5e74\u540c\u671f=100)
p800
sVdbcode
p801
Vhgyd
p802
sVpid
p803
VA0105
p804
sVisParent
p805
I00
sVwdcode
p806
Vzb
p807
sVid
p808
VA010501
p809
sa(dp810
Vname
p811
V\u57ce\u5e02\u5546\u54c1\u96f6\u552e\u4ef7\u683c\u6307\u6570(\u4e0a\u5e74\u540c\u671f=100)
p812
sVdbcode
p813
Vhgyd
p814
sVpid
p815
VA0105
p816
sVisParent
p817
I00
sVwdcode
p818
Vzb
p819
sVid
p820
VA010502
p821
sa(dp822
Vname
p823
V\u519c\u6751\u5546\u54c1\u96f6\u552e\u4ef7\u683c\u6307\u6570(\u4e0a\u5e74\u540c\u671f=100)
p824
sVdbcode
p825
Vhgyd
p826
sVpid
p827
VA0105
p828
sVisParent
p829
I00
sVwdcode
p830
Vzb
p831
sVid
p832
VA010503
p833
sasg137
(lp834
g0
(g1
g2
Ntp835
Rp836
(dp837
g6
I01
sg7
g800
sg9
g10
sg11
g809
sg12
Nsg13
(lp838
sg137
(lp839
sbag0
(g1
g2
Ntp840
Rp841
(dp842
g6
I01
sg7
g812
sg9
g10
sg11
g821
sg12
Nsg13
(lp843
sg137
(lp844
sbag0
(g1
g2
Ntp845
Rp846
(dp847
g6
I01
sg7
g824
sg9
g10
sg11
g833
sg12
Nsg13
(lp848
sg137
(lp849
sbasbag0
(g1
g2
Ntp850
Rp851
(dp852
g6
I00
sg7
g205
sg9
g10
sg11
g214
sg12
Nsg13
(lp853
(dp854
Vname
p855
V\u5546\u54c1\u96f6\u552e\u4ef7\u683c\u6307\u6570(\u4e0a\u6708=100)
p856
sVdbcode
p857
Vhgyd
p858
sVpid
p859
VA0106
p860
sVisParent
p861
I00
sVwdcode
p862
Vzb
p863
sVid
p864
VA010601
p865
sa(dp866
Vname
p867
V\u57ce\u5e02\u5546\u54c1\u96f6\u552e\u4ef7\u683c\u6307\u6570(\u4e0a\u6708=100)
p868
sVdbcode
p869
Vhgyd
p870
sVpid
p871
VA0106
p872
sVisParent
p873
I00
sVwdcode
p874
Vzb
p875
sVid
p876
VA010602
p877
sa(dp878
Vname
p879
V\u519c\u6751\u5546\u54c1\u96f6\u552e\u4ef7\u683c\u6307\u6570(\u4e0a\u6708=100)
p880
sVdbcode
p881
Vhgyd
p882
sVpid
p883
VA0106
p884
sVisParent
p885
I00
sVwdcode
p886
Vzb
p887
sVid
p888
VA010603
p889
sasg137
(lp890
g0
(g1
g2
Ntp891
Rp892
(dp893
g6
I01
sg7
g856
sg9
g10
sg11
g865
sg12
Nsg13
(lp894
sg137
(lp895
sbag0
(g1
g2
Ntp896
Rp897
(dp898
g6
I01
sg7
g868
sg9
g10
sg11
g877
sg12
Nsg13
(lp899
sg137
(lp900
sbag0
(g1
g2
Ntp901
Rp902
(dp903
g6
I01
sg7
g880
sg9
g10
sg11
g889
sg12
Nsg13
(lp904
sg137
(lp905
sbasbag0
(g1
g2
Ntp906
Rp907
(dp908
g6
I00
sg7
g217
sg9
g10
sg11
g226
sg12
Nsg13
(lp909
(dp910
Vname
p911
V\u5de5\u4e1a\u751f\u4ea7\u8005\u8d2d\u8fdb\u4ef7\u683c\u6307\u6570(\u4e0a\u5e74\u540c\u6708=100)
p912
sVdbcode
p913
Vhgyd
p914
sVpid
p915
VA0107
p916
sVisParent
p917
I00
sVwdcode
p918
Vzb
p919
sVid
p920
VA010701
p921
sa(dp922
Vname
p923
V\u5de5\u4e1a\u751f\u4ea7\u8005\u8d2d\u8fdb\u4ef7\u683c\u6307\u6570(\u4e0a\u5e74\u540c\u671f=100)
p924
sVdbcode
p925
Vhgyd
p926
sVpid
p927
VA0107
p928
sVisParent
p929
I00
sVwdcode
p930
Vzb
p931
sVid
p932
VA010702
p933
sa(dp934
Vname
p935
V\u5de5\u4e1a\u751f\u4ea7\u8005\u8d2d\u8fdb\u4ef7\u683c\u6307\u6570(\u4e0a\u6708=100)
p936
sVdbcode
p937
Vhgyd
p938
sVpid
p939
VA0107
p940
sVisParent
p941
I00
sVwdcode
p942
Vzb
p943
sVid
p944
VA010703
p945
sasg137
(lp946
g0
(g1
g2
Ntp947
Rp948
(dp949
g6
I01
sg7
g912
sg9
g10
sg11
g921
sg12
Nsg13
(lp950
sg137
(lp951
sbag0
(g1
g2
Ntp952
Rp953
(dp954
g6
I01
sg7
g924
sg9
g10
sg11
g933
sg12
Nsg13
(lp955
sg137
(lp956
sbag0
(g1
g2
Ntp957
Rp958
(dp959
g6
I01
sg7
g936
sg9
g10
sg11
g945
sg12
Nsg13
(lp960
sg137
(lp961
sbasbag0
(g1
g2
Ntp962
Rp963
(dp964
g6
I00
sg7
g229
sg9
g10
sg11
g238
sg12
Nsg13
(lp965
(dp966
Vname
p967
V\u5de5\u4e1a\u751f\u4ea7\u8005\u51fa\u5382\u4ef7\u683c\u6307\u6570(\u4e0a\u5e74\u540c\u6708=100)
p968
sVdbcode
p969
Vhgyd
p970
sVpid
p971
VA0108
p972
sVisParent
p973
I00
sVwdcode
p974
Vzb
p975
sVid
p976
VA010801
p977
sa(dp978
Vname
p979
V\u751f\u4ea7\u8d44\u6599\u5de5\u4e1a\u751f\u4ea7\u8005\u51fa\u5382\u4ef7\u683c\u6307\u6570(\u4e0a\u5e74\u540c\u6708=100)
p980
sVdbcode
p981
Vhgyd
p982
sVpid
p983
VA0108
p984
sVisParent
p985
I00
sVwdcode
p986
Vzb
p987
sVid
p988
VA010802
p989
sa(dp990
Vname
p991
V\u751f\u6d3b\u8d44\u6599\u5de5\u4e1a\u751f\u4ea7\u8005\u51fa\u5382\u4ef7\u683c\u6307\u6570(\u4e0a\u5e74\u540c\u6708=100)
p992
sVdbcode
p993
Vhgyd
p994
sVpid
p995
VA0108
p996
sVisParent
p997
I00
sVwdcode
p998
Vzb
p999
sVid
p1000
VA010803
p1001
sa(dp1002
Vname
p1003
V\u5de5\u4e1a\u751f\u4ea7\u8005\u51fa\u5382\u4ef7\u683c\u6307\u6570(\u4e0a\u5e74\u540c\u671f=100)
p1004
sVdbcode
p1005
Vhgyd
p1006
sVpid
p1007
VA0108
p1008
sVisParent
p1009
I00
sVwdcode
p1010
Vzb
p1011
sVid
p1012
VA010804
p1013
sa(dp1014
Vname
p1015
V\u751f\u4ea7\u8d44\u6599\u5de5\u4e1a\u751f\u4ea7\u8005\u51fa\u5382\u4ef7\u683c\u6307\u6570(\u4e0a\u5e74\u540c\u671f=100)
p1016
sVdbcode
p1017
Vhgyd
p1018
sVpid
p1019
VA0108
p1020
sVisParent
p1021
I00
sVwdcode
p1022
Vzb
p1023
sVid
p1024
VA010805
p1025
sa(dp1026
Vname
p1027
V\u751f\u6d3b\u8d44\u6599\u5de5\u4e1a\u751f\u4ea7\u8005\u51fa\u5382\u4ef7\u683c\u6307\u6570(\u4e0a\u5e74\u540c\u671f=100)
p1028
sVdbcode
p1029
Vhgyd
p1030
sVpid
p1031
VA0108
p1032
sVisParent
p1033
I00
sVwdcode
p1034
Vzb
p1035
sVid
p1036
VA010806
p1037
sa(dp1038
Vname
p1039
V\u5de5\u4e1a\u751f\u4ea7\u8005\u51fa\u5382\u4ef7\u683c\u6307\u6570(\u4e0a\u6708=100)
p1040
sVdbcode
p1041
Vhgyd
p1042
sVpid
p1043
VA0108
p1044
sVisParent
p1045
I00
sVwdcode
p1046
Vzb
p1047
sVid
p1048
VA010807
p1049
sa(dp1050
Vname
p1051
V\u751f\u4ea7\u8d44\u6599\u5de5\u4e1a\u751f\u4ea7\u8005\u51fa\u5382\u4ef7\u683c\u6307\u6570(\u4e0a\u6708=100)
p1052
sVdbcode
p1053
Vhgyd
p1054
sVpid
p1055
VA0108
p1056
sVisParent
p1057
I00
sVwdcode
p1058
Vzb
p1059
sVid
p1060
VA010808
p1061
sa(dp1062
Vname
p1063
V\u751f\u6d3b\u8d44\u6599\u5de5\u4e1a\u751f\u4ea7\u8005\u51fa\u5382\u4ef7\u683c\u6307\u6570(\u4e0a\u6708=100)
p1064
sVdbcode
p1065
Vhgyd
p1066
sVpid
p1067
VA0108
p1068
sVisParent
p1069
I00
sVwdcode
p1070
Vzb
p1071
sVid
p1072
VA010809
p1073
sasg137
(lp1074
g0
(g1
g2
Ntp1075
Rp1076
(dp1077
g6
I01
sg7
g968
sg9
g10
sg11
g977
sg12
Nsg13
(lp1078
sg137
(lp1079
sbag0
(g1
g2
Ntp1080
Rp1081
(dp1082
g6
I01
sg7
g980
sg9
g10
sg11
g989
sg12
Nsg13
(lp1083
sg137
(lp1084
sbag0
(g1
g2
Ntp1085
Rp1086
(dp1087
g6
I01
sg7
g992
sg9
g10
sg11
g1001
sg12
Nsg13
(lp1088
sg137
(lp1089
sbag0
(g1
g2
Ntp1090
Rp1091
(dp1092
g6
I01
sg7
g1004
sg9
g10
sg11
g1013
sg12
Nsg13
(lp1093
sg137
(lp1094
sbag0
(g1
g2
Ntp1095
Rp1096
(dp1097
g6
I01
sg7
g1016
sg9
g10
sg11
g1025
sg12
Nsg13
(lp1098
sg137
(lp1099
sbag0
(g1
g2
Ntp1100
Rp1101
(dp1102
g6
I01
sg7
g1028
sg9
g10
sg11
g1037
sg12
Nsg13
(lp1103
sg137
(lp1104
sbag0
(g1
g2
Ntp1105
Rp1106
(dp1107
g6
I01
sg7
g1040
sg9
g10
sg11
g1049
sg12
Nsg13
(lp1108
sg137
(lp1109
sbag0
(g1
g2
Ntp1110
Rp1111
(dp1112
g6
I01
sg7
g1052
sg9
g10
sg11
g1061
sg12
Nsg13
(lp1113
sg137
(lp1114
sbag0
(g1
g2
Ntp1115
Rp1116
(dp1117
g6
I01
sg7
g1064
sg9
g10
sg11
g1073
sg12
Nsg13
(lp1118
sg137
(lp1119
sbasbag0
(g1
g2
Ntp1120
Rp1121
(dp1122
g6
I01
sg7
g241
sg9
g10
sg11
g250
sg12
Nsg13
(lp1123
sg137
(lp1124
sbag0
(g1
g2
Ntp1125
Rp1126
(dp1127
g6
I01
sg7
g253
sg9
g10
sg11
g262
sg12
Nsg13
(lp1128
sg137
(lp1129
sbasbag0
(g1
g2
Ntp1130
Rp1131
(dp1132
g6
I00
sg7
g29
sg9
g10
sg11
g37
sg12
Nsg13
(lp1133
(dp1134
Vname
p1135
V\u5de5\u4e1a\u589e\u52a0\u503c\u589e\u957f\u901f\u5ea6
p1136
sVdbcode
p1137
Vhgyd
p1138
sVpid
p1139
VA02
p1140
sVisParent
p1141
I00
sVwdcode
p1142
Vzb
p1143
sVid
p1144
VA0201
p1145
sa(dp1146
Vname
p1147
V\u6309\u7ecf\u6d4e\u7c7b\u578b\u5206\u5de5\u4e1a\u589e\u52a0\u503c\u589e\u957f\u901f\u5ea6
p1148
sVdbcode
p1149
Vhgyd
p1150
sVpid
p1151
VA02
p1152
sVisParent
p1153
I00
sVwdcode
p1154
Vzb
p1155
sVid
p1156
VA0202
p1157
sa(dp1158
Vname
p1159
V\u5de5\u4e1a\u5206\u5927\u7c7b\u884c\u4e1a\u589e\u52a0\u503c\u589e\u957f\u901f\u5ea6(2003-2011)
p1160
sVdbcode
p1161
Vhgyd
p1162
sVpid
p1163
VA02
p1164
sVisParent
p1165
I00
sVwdcode
p1166
Vzb
p1167
sVid
p1168
VA0204
p1169
sa(dp1170
Vname
p1171
V\u5de5\u4e1a\u5206\u5927\u7c7b\u884c\u4e1a\u589e\u52a0\u503c\u589e\u957f\u901f\u5ea6(2012-\u81f3\u4eca)
p1172
sVdbcode
p1173
Vhgyd
p1174
sVpid
p1175
VA02
p1176
sVisParent
p1177
I00
sVwdcode
p1178
Vzb
p1179
sVid
p1180
VA0205
p1181
sa(dp1182
Vname
p1183
V\u5de5\u4e1a\u5206\u5927\u7c7b\u884c\u4e1a\u51fa\u53e3\u4ea4\u8d27\u503c(2003-2011)
p1184
sVdbcode
p1185
Vhgyd
p1186
sVpid
p1187
VA02
p1188
sVisParent
p1189
I01
sVwdcode
p1190
Vzb
p1191
sVid
p1192
VA0206
p1193
sa(dp1194
Vname
p1195
V\u5de5\u4e1a\u5206\u5927\u7c7b\u884c\u4e1a\u51fa\u53e3\u4ea4\u8d27\u503c(2012-\u81f3\u4eca)
p1196
sVdbcode
p1197
Vhgyd
p1198
sVpid
p1199
VA02
p1200
sVisParent
p1201
I01
sVwdcode
p1202
Vzb
p1203
sVid
p1204
VA0207
p1205
sa(dp1206
Vname
p1207
V\u5de5\u4e1a\u4e3b\u8981\u4ea7\u54c1\u4ea7\u91cf
p1208
sVdbcode
p1209
Vhgyd
p1210
sVpid
p1211
VA02
p1212
sVisParent
p1213
I01
sVwdcode
p1214
Vzb
p1215
sVid
p1216
VA0208
p1217
sa(dp1218
Vname
p1219
V\u5de5\u4e1a\u4f01\u4e1a\u4e3b\u8981\u7ecf\u6d4e\u6307\u6807
p1220
sVdbcode
p1221
Vhgyd
p1222
sVpid
p1223
VA02
p1224
sVisParent
p1225
I00
sVwdcode
p1226
Vzb
p1227
sVid
p1228
VA0209
p1229
sa(dp1230
Vname
p1231
V\u56fd\u6709\u5de5\u4e1a\u4f01\u4e1a\u4e3b\u8981\u7ecf\u6d4e\u6307\u6807
p1232
sVdbcode
p1233
Vhgyd
p1234
sVpid
p1235
VA02
p1236
sVisParent
p1237
I00
sVwdcode
p1238
Vzb
p1239
sVid
p1240
VA020A
p1241
sa(dp1242
Vname
p1243
V\u96c6\u4f53\u5de5\u4e1a\u4f01\u4e1a\u4e3b\u8981\u7ecf\u6d4e\u6307\u6807
p1244
sVdbcode
p1245
Vhgyd
p1246
sVpid
p1247
VA02
p1248
sVisParent
p1249
I00
sVwdcode
p1250
Vzb
p1251
sVid
p1252
VA020B
p1253
sa(dp1254
Vname
p1255
V\u80a1\u4efd\u5408\u4f5c\u5de5\u4e1a\u4f01\u4e1a\u4e3b\u8981\u7ecf\u6d4e\u6307\u6807
p1256
sVdbcode
p1257
Vhgyd
p1258
sVpid
p1259
VA02
p1260
sVisParent
p1261
I00
sVwdcode
p1262
Vzb
p1263
sVid
p1264
VA020C
p1265
sa(dp1266
Vname
p1267
V\u80a1\u4efd\u5236\u5de5\u4e1a\u4f01\u4e1a\u4e3b\u8981\u7ecf\u6d4e\u6307\u6807
p1268
sVdbcode
p1269
Vhgyd
p1270
sVpid
p1271
VA02
p1272
sVisParent
p1273
I00
sVwdcode
p1274
Vzb
p1275
sVid
p1276
VA020D
p1277
sa(dp1278
Vname
p1279
V\u5916\u5546\u53ca\u6e2f\u6fb3\u53f0\u6295\u8d44\u5de5\u4e1a\u4f01\u4e1a\u4e3b\u8981\u7ecf\u6d4e\u6307\u6807
p1280
sVdbcode
p1281
Vhgyd
p1282
sVpid
p1283
VA02
p1284
sVisParent
p1285
I00
sVwdcode
p1286
Vzb
p1287
sVid
p1288
VA020E
p1289
sa(dp1290
Vname
p1291
V\u5176\u5b83\u5de5\u4e1a\u4f01\u4e1a\u4e3b\u8981\u7ecf\u6d4e\u6307\u6807
p1292
sVdbcode
p1293
Vhgyd
p1294
sVpid
p1295
VA02
p1296
sVisParent
p1297
I00
sVwdcode
p1298
Vzb
p1299
sVid
p1300
VA020F
p1301
sa(dp1302
Vname
p1303
V\u56fd\u6709\u63a7\u80a1\u5de5\u4e1a\u4f01\u4e1a\u4e3b\u8981\u7ecf\u6d4e\u6307\u6807
p1304
sVdbcode
p1305
Vhgyd
p1306
sVpid
p1307
VA02
p1308
sVisParent
p1309
I00
sVwdcode
p1310
Vzb
p1311
sVid
p1312
VA020G
p1313
sa(dp1314
Vname
p1315
V\u5927\u4e2d\u578b\u5de5\u4e1a\u4f01\u4e1a\u4e3b\u8981\u7ecf\u6d4e\u6307\u6807
p1316
sVdbcode
p1317
Vhgyd
p1318
sVpid
p1319
VA02
p1320
sVisParent
p1321
I00
sVwdcode
p1322
Vzb
p1323
sVid
p1324
VA020H
p1325
sa(dp1326
Vname
p1327
V\u5927\u4e2d\u578b\u56fd\u6709\u63a7\u80a1\u5de5\u4e1a\u4f01\u4e1a\u4e3b\u8981\u7ecf\u6d4e\u6307\u6807
p1328
sVdbcode
p1329
Vhgyd
p1330
sVpid
p1331
VA02
p1332
sVisParent
p1333
I00
sVwdcode
p1334
Vzb
p1335
sVid
p1336
VA020I
p1337
sa(dp1338
Vname
p1339
V\u79c1\u8425\u5de5\u4e1a\u4f01\u4e1a\u4e3b\u8981\u7ecf\u6d4e\u6307\u6807
p1340
sVdbcode
p1341
Vhgyd
p1342
sVpid
p1343
VA02
p1344
sVisParent
p1345
I00
sVwdcode
p1346
Vzb
p1347
sVid
p1348
VA020J
p1349
sa(dp1350
Vname
p1351
V\u6309\u884c\u4e1a\u5206\u5de5\u4e1a\u4f01\u4e1a\u4e3b\u8981\u7ecf\u6d4e\u6307\u6807(2001-2002)
p1352
sVdbcode
p1353
Vhgyd
p1354
sVpid
p1355
VA02
p1356
sVisParent
p1357
I01
sVwdcode
p1358
Vzb
p1359
sVid
p1360
VA020K
p1361
sa(dp1362
Vname
p1363
V\u6309\u884c\u4e1a\u5206\u5de5\u4e1a\u4f01\u4e1a\u4e3b\u8981\u7ecf\u6d4e\u6307\u6807(2003-2011)
p1364
sVdbcode
p1365
Vhgyd
p1366
sVpid
p1367
VA02
p1368
sVisParent
p1369
I01
sVwdcode
p1370
Vzb
p1371
sVid
p1372
VA020L
p1373
sa(dp1374
Vname
p1375
V\u6309\u884c\u4e1a\u5206\u5de5\u4e1a\u4f01\u4e1a\u4e3b\u8981\u7ecf\u6d4e\u6307\u6807(2012-\u81f3\u4eca)
p1376
sVdbcode
p1377
Vhgyd
p1378
sVpid
p1379
VA02
p1380
sVisParent
p1381
I01
sVwdcode
p1382
Vzb
p1383
sVid
p1384
VA020M
p1385
sasg137
(lp1386
g0
(g1
g2
Ntp1387
Rp1388
(dp1389
g6
I01
sg7
g1136
sg9
g10
sg11
g1145
sg12
Nsg13
(lp1390
sg137
(lp1391
sbag0
(g1
g2
Ntp1392
Rp1393
(dp1394
g6
I01
sg7
g1148
sg9
g10
sg11
g1157
sg12
Nsg13
(lp1395
sg137
(lp1396
sbag0
(g1
g2
Ntp1397
Rp1398
(dp1399
g6
I01
sg7
g1160
sg9
g10
sg11
g1169
sg12
Nsg13
(lp1400
sg137
(lp1401
sbag0
(g1
g2
Ntp1402
Rp1403
(dp1404
g6
I01
sg7
g1172
sg9
g10
sg11
g1181
sg12
Nsg13
(lp1405
sg137
(lp1406
sbag0
(g1
g2
Ntp1407
Rp1408
(dp1409
g6
I00
sg7
g1184
sg9
g10
sg11
g1193
sg12
Nsg13
(lp1410
(dp1411
Vname
p1412
V\u5de5\u4e1a\u51fa\u53e3\u4ea4\u8d27\u503c
p1413
sVdbcode
p1414
Vhgyd
p1415
sVpid
p1416
VA0206
p1417
sVisParent
p1418
I00
sVwdcode
p1419
Vzb
p1420
sVid
p1421
VA020601
p1422
sa(dp1423
Vname
p1424
V\u7164\u70ad\u5f00\u91c7\u548c\u6d17\u9009\u4e1a
p1425
sVdbcode
p1426
Vhgyd
p1427
sVpid
p1428
VA0206
p1429
sVisParent
p1430
I00
sVwdcode
p1431
Vzb
p1432
sVid
p1433
VA020602
p1434
sa(dp1435
Vname
p1436
V\u77f3\u6cb9\u548c\u5929\u7136\u6c14\u5f00\u91c7\u4e1a
p1437
sVdbcode
p1438
Vhgyd
p1439
sVpid
p1440
VA0206
p1441
sVisParent
p1442
I00
sVwdcode
p1443
Vzb
p1444
sVid
p1445
VA020603
p1446
sa(dp1447
Vname
p1448
V\u9ed1\u8272\u91d1\u5c5e\u77ff\u91c7\u9009\u4e1a
p1449
sVdbcode
p1450
Vhgyd
p1451
sVpid
p1452
VA0206
p1453
sVisParent
p1454
I00
sVwdcode
p1455
Vzb
p1456
sVid
p1457
VA020604
p1458
sa(dp1459
Vname
p1460
V\u6709\u8272\u91d1\u5c5e\u77ff\u91c7\u9009\u4e1a
p1461
sVdbcode
p1462
Vhgyd
p1463
sVpid
p1464
VA0206
p1465
sVisParent
p1466
I00
sVwdcode
p1467
Vzb
p1468
sVid
p1469
VA020605
p1470
sa(dp1471
Vname
p1472
V\u975e\u91d1\u5c5e\u77ff\u91c7\u9009\u4e1a
p1473
sVdbcode
p1474
Vhgyd
p1475
sVpid
p1476
VA0206
p1477
sVisParent
p1478
I00
sVwdcode
p1479
Vzb
p1480
sVid
p1481
VA020606
p1482
sa(dp1483
Vname
p1484
V\u5176\u4ed6\u91c7\u77ff\u4e1a
p1485
sVdbcode
p1486
Vhgyd
p1487
sVpid
p1488
VA0206
p1489
sVisParent
p1490
I00
sVwdcode
p1491
Vzb
p1492
sVid
p1493
VA020607
p1494
sa(dp1495
Vname
p1496
V\u519c\u526f\u98df\u54c1\u52a0\u5de5\u4e1a
p1497
sVdbcode
p1498
Vhgyd
p1499
sVpid
p1500
VA0206
p1501
sVisParent
p1502
I00
sVwdcode
p1503
Vzb
p1504
sVid
p1505
VA020608
p1506
sa(dp1507
Vname
p1508
V\u98df\u54c1\u5236\u9020\u4e1a
p1509
sVdbcode
p1510
Vhgyd
p1511
sVpid
p1512
VA0206
p1513
sVisParent
p1514
I00
sVwdcode
p1515
Vzb
p1516
sVid
p1517
VA020609
p1518
sa(dp1519
Vname
p1520
V\u996e\u6599\u5236\u9020\u4e1a
p1521
sVdbcode
p1522
Vhgyd
p1523
sVpid
p1524
VA0206
p1525
sVisParent
p1526
I00
sVwdcode
p1527
Vzb
p1528
sVid
p1529
VA02060A
p1530
sa(dp1531
Vname
p1532
V\u70df\u8349\u5236\u54c1\u4e1a
p1533
sVdbcode
p1534
Vhgyd
p1535
sVpid
p1536
VA0206
p1537
sVisParent
p1538
I00
sVwdcode
p1539
Vzb
p1540
sVid
p1541
VA02060B
p1542
sa(dp1543
Vname
p1544
V\u7eba\u7ec7\u4e1a
p1545
sVdbcode
p1546
Vhgyd
p1547
sVpid
p1548
VA0206
p1549
sVisParent
p1550
I00
sVwdcode
p1551
Vzb
p1552
sVid
p1553
VA02060C
p1554
sa(dp1555
Vname
p1556
V\u7eba\u7ec7\u670d\u88c5\u3001\u978b\u3001\u5e3d\u5236\u9020\u4e1a
p1557
sVdbcode
p1558
Vhgyd
p1559
sVpid
p1560
VA0206
p1561
sVisParent
p1562
I00
sVwdcode
p1563
Vzb
p1564
sVid
p1565
VA02060D
p1566
sa(dp1567
Vname
p1568
V\u76ae\u9769\u3001\u6bdb\u76ae\u3001\u7fbd\u6bdb(\u7ed2)\u53ca\u5176\u5236\u54c1\u4e1a
p1569
sVdbcode
p1570
Vhgyd
p1571
sVpid
p1572
VA0206
p1573
sVisParent
p1574
I00
sVwdcode
p1575
Vzb
p1576
sVid
p1577
VA02060E
p1578
sa(dp1579
Vname
p1580
V\u6728\u6750\u52a0\u5de5\u53ca\u6728\u3001\u7af9\u3001\u85e4\u3001\u68d5\u3001\u8349\u5236\u54c1\u4e1a
p1581
sVdbcode
p1582
Vhgyd
p1583
sVpid
p1584
VA0206
p1585
sVisParent
p1586
I00
sVwdcode
p1587
Vzb
p1588
sVid
p1589
VA02060F
p1590
sa(dp1591
Vname
p1592
V\u5bb6\u5177\u5236\u9020\u4e1a
p1593
sVdbcode
p1594
Vhgyd
p1595
sVpid
p1596
VA0206
p1597
sVisParent
p1598
I00
sVwdcode
p1599
Vzb
p1600
sVid
p1601
VA02060G
p1602
sa(dp1603
Vname
p1604
V\u9020\u7eb8\u53ca\u7eb8\u5236\u54c1\u4e1a
p1605
sVdbcode
p1606
Vhgyd
p1607
sVpid
p1608
VA0206
p1609
sVisParent
p1610
I00
sVwdcode
p1611
Vzb
p1612
sVid
p1613
VA02060H
p1614
sa(dp1615
Vname
p1616
V\u5370\u5237\u4e1a\u548c\u8bb0\u5f55\u5a92\u4ecb\u7684\u590d\u5236
p1617
sVdbcode
p1618
Vhgyd
p1619
sVpid
p1620
VA0206
p1621
sVisParent
p1622
I00
sVwdcode
p1623
Vzb
p1624
sVid
p1625
VA02060I
p1626
sa(dp1627
Vname
p1628
V\u6587\u6559\u4f53\u80b2\u7528\u54c1\u5236\u9020\u4e1a
p1629
sVdbcode
p1630
Vhgyd
p1631
sVpid
p1632
VA0206
p1633
sVisParent
p1634
I00
sVwdcode
p1635
Vzb
p1636
sVid
p1637
VA02060J
p1638
sa(dp1639
Vname
p1640
V\u77f3\u6cb9\u52a0\u5de5\u3001\u70bc\u7126\u53ca\u6838\u71c3\u6599\u52a0\u5de5\u4e1a
p1641
sVdbcode
p1642
Vhgyd
p1643
sVpid
p1644
VA0206
p1645
sVisParent
p1646
I00
sVwdcode
p1647
Vzb
p1648
sVid
p1649
VA02060K
p1650
sa(dp1651
Vname
p1652
V\u5316\u5b66\u539f\u6599\u53ca\u5316\u5b66\u5236\u54c1\u5236\u9020\u4e1a
p1653
sVdbcode
p1654
Vhgyd
p1655
sVpid
p1656
VA0206
p1657
sVisParent
p1658
I00
sVwdcode
p1659
Vzb
p1660
sVid
p1661
VA02060L
p1662
sa(dp1663
Vname
p1664
V\u533b\u836f\u5236\u9020\u4e1a
p1665
sVdbcode
p1666
Vhgyd
p1667
sVpid
p1668
VA0206
p1669
sVisParent
p1670
I00
sVwdcode
p1671
Vzb
p1672
sVid
p1673
VA02060M
p1674
sa(dp1675
Vname
p1676
V\u5316\u5b66\u7ea4\u7ef4\u5236\u9020\u4e1a
p1677
sVdbcode
p1678
Vhgyd
p1679
sVpid
p1680
VA0206
p1681
sVisParent
p1682
I00
sVwdcode
p1683
Vzb
p1684
sVid
p1685
VA02060N
p1686
sa(dp1687
Vname
p1688
V\u6a61\u80f6\u5236\u54c1\u4e1a
p1689
sVdbcode
p1690
Vhgyd
p1691
sVpid
p1692
VA0206
p1693
sVisParent
p1694
I00
sVwdcode
p1695
Vzb
p1696
sVid
p1697
VA02060O
p1698
sa(dp1699
Vname
p1700
V\u5851\u6599\u5236\u54c1\u4e1a
p1701
sVdbcode
p1702
Vhgyd
p1703
sVpid
p1704
VA0206
p1705
sVisParent
p1706
I00
sVwdcode
p1707
Vzb
p1708
sVid
p1709
VA02060P
p1710
sa(dp1711
Vname
p1712
V\u975e\u91d1\u5c5e\u77ff\u7269\u5236\u54c1\u4e1a
p1713
sVdbcode
p1714
Vhgyd
p1715
sVpid
p1716
VA0206
p1717
sVisParent
p1718
I00
sVwdcode
p1719
Vzb
p1720
sVid
p1721
VA02060Q
p1722
sa(dp1723
Vname
p1724
V\u9ed1\u8272\u91d1\u5c5e\u51b6\u70bc\u53ca\u538b\u5ef6\u52a0\u5de5\u4e1a
p1725
sVdbcode
p1726
Vhgyd
p1727
sVpid
p1728
VA0206
p1729
sVisParent
p1730
I00
sVwdcode
p1731
Vzb
p1732
sVid
p1733
VA02060R
p1734
sa(dp1735
Vname
p1736
V\u6709\u8272\u91d1\u5c5e\u51b6\u70bc\u53ca\u538b\u5ef6\u52a0\u5de5\u4e1a
p1737
sVdbcode
p1738
Vhgyd
p1739
sVpid
p1740
VA0206
p1741
sVisParent
p1742
I00
sVwdcode
p1743
Vzb
p1744
sVid
p1745
VA02060S
p1746
sa(dp1747
Vname
p1748
V\u91d1\u5c5e\u5236\u54c1\u4e1a
p1749
sVdbcode
p1750
Vhgyd
p1751
sVpid
p1752
VA0206
p1753
sVisParent
p1754
I00
sVwdcode
p1755
Vzb
p1756
sVid
p1757
VA02060T
p1758
sa(dp1759
Vname
p1760
V\u901a\u7528\u8bbe\u5907\u5236\u9020\u4e1a
p1761
sVdbcode
p1762
Vhgyd
p1763
sVpid
p1764
VA0206
p1765
sVisParent
p1766
I00
sVwdcode
p1767
Vzb
p1768
sVid
p1769
VA02060U
p1770
sa(dp1771
Vname
p1772
V\u4e13\u7528\u8bbe\u5907\u5236\u9020\u4e1a
p1773
sVdbcode
p1774
Vhgyd
p1775
sVpid
p1776
VA0206
p1777
sVisParent
p1778
I00
sVwdcode
p1779
Vzb
p1780
sVid
p1781
VA02060V
p1782
sa(dp1783
Vname
p1784
V\u4ea4\u901a\u8fd0\u8f93\u8bbe\u5907\u5236\u9020\u4e1a
p1785
sVdbcode
p1786
Vhgyd
p1787
sVpid
p1788
VA0206
p1789
sVisParent
p1790
I00
sVwdcode
p1791
Vzb
p1792
sVid
p1793
VA02060W
p1794
sa(dp1795
Vname
p1796
V\u7535\u6c14\u673a\u68b0\u53ca\u5668\u6750\u5236\u9020\u4e1a
p1797
sVdbcode
p1798
Vhgyd
p1799
sVpid
p1800
VA0206
p1801
sVisParent
p1802
I00
sVwdcode
p1803
Vzb
p1804
sVid
p1805
VA02060X
p1806
sa(dp1807
Vname
p1808
V\u901a\u4fe1\u8bbe\u5907\u3001\u8ba1\u7b97\u673a\u53ca\u5176\u4ed6\u7535\u5b50\u8bbe\u5907\u5236\u9020\u4e1a
p1809
sVdbcode
p1810
Vhgyd
p1811
sVpid
p1812
VA0206
p1813
sVisParent
p1814
I00
sVwdcode
p1815
Vzb
p1816
sVid
p1817
VA02060Y
p1818
sa(dp1819
Vname
p1820
V\u4eea\u5668\u4eea\u8868\u53ca\u6587\u5316\u3001\u529e\u516c\u7528\u673a\u68b0\u5236\u9020\u4e1a
p1821
sVdbcode
p1822
Vhgyd
p1823
sVpid
p1824
VA0206
p1825
sVisParent
p1826
I00
sVwdcode
p1827
Vzb
p1828
sVid
p1829
VA02060Z
p1830
sa(dp1831
Vname
p1832
V\u5de5\u827a\u54c1\u53ca\u5176\u4ed6\u5236\u9020\u4e1a
p1833
sVdbcode
p1834
Vhgyd
p1835
sVpid
p1836
VA0206
p1837
sVisParent
p1838
I00
sVwdcode
p1839
Vzb
p1840
sVid
p1841
VA020610
p1842
sa(dp1843
Vname
p1844
V\u5e9f\u5f03\u8d44\u6e90\u548c\u5e9f\u65e7\u6750\u6599\u56de\u6536\u52a0\u5de5\u4e1a
p1845
sVdbcode
p1846
Vhgyd
p1847
sVpid
p1848
VA0206
p1849
sVisParent
p1850
I00
sVwdcode
p1851
Vzb
p1852
sVid
p1853
VA020611
p1854
sa(dp1855
Vname
p1856
V\u7535\u529b\u3001\u70ed\u529b\u7684\u751f\u4ea7\u548c\u4f9b\u5e94\u4e1a
p1857
sVdbcode
p1858
Vhgyd
p1859
sVpid
p1860
VA0206
p1861
sVisParent
p1862
I00
sVwdcode
p1863
Vzb
p1864
sVid
p1865
VA020612
p1866
sa(dp1867
Vname
p1868
V\u71c3\u6c14\u751f\u4ea7\u548c\u4f9b\u5e94\u4e1a
p1869
sVdbcode
p1870
Vhgyd
p1871
sVpid
p1872
VA0206
p1873
sVisParent
p1874
I00
sVwdcode
p1875
Vzb
p1876
sVid
p1877
VA020613
p1878
sa(dp1879
Vname
p1880
V\u6c34\u7684\u751f\u4ea7\u548c\u4f9b\u5e94\u4e1a
p1881
sVdbcode
p1882
Vhgyd
p1883
sVpid
p1884
VA0206
p1885
sVisParent
p1886
I00
sVwdcode
p1887
Vzb
p1888
sVid
p1889
VA020614
p1890
sasg137
(lp1891
g0
(g1
g2
Ntp1892
Rp1893
(dp1894
g6
I01
sg7
g1413
sg9
g10
sg11
g1422
sg12
Nsg13
(lp1895
sg137
(lp1896
sbag0
(g1
g2
Ntp1897
Rp1898
(dp1899
g6
I01
sg7
g1425
sg9
g10
sg11
g1434
sg12
Nsg13
(lp1900
sg137
(lp1901
sbag0
(g1
g2
Ntp1902
Rp1903
(dp1904
g6
I01
sg7
g1437
sg9
g10
sg11
g1446
sg12
Nsg13
(lp1905
sg137
(lp1906
sbag0
(g1
g2
Ntp1907
Rp1908
(dp1909
g6
I01
sg7
g1449
sg9
g10
sg11
g1458
sg12
Nsg13
(lp1910
sg137
(lp1911
sbag0
(g1
g2
Ntp1912
Rp1913
(dp1914
g6
I01
sg7
g1461
sg9
g10
sg11
g1470
sg12
Nsg13
(lp1915
sg137
(lp1916
sbag0
(g1
g2
Ntp1917
Rp1918
(dp1919
g6
I01
sg7
g1473
sg9
g10
sg11
g1482
sg12
Nsg13
(lp1920
sg137
(lp1921
sbag0
(g1
g2
Ntp1922
Rp1923
(dp1924
g6
I01
sg7
g1485
sg9
g10
sg11
g1494
sg12
Nsg13
(lp1925
sg137
(lp1926
sbag0
(g1
g2
Ntp1927
Rp1928
(dp1929
g6
I01
sg7
g1497
sg9
g10
sg11
g1506
sg12
Nsg13
(lp1930
sg137
(lp1931
sbag0
(g1
g2
Ntp1932
Rp1933
(dp1934
g6
I01
sg7
g1509
sg9
g10
sg11
g1518
sg12
Nsg13
(lp1935
sg137
(lp1936
sbag0
(g1
g2
Ntp1937
Rp1938
(dp1939
g6
I01
sg7
g1521
sg9
g10
sg11
g1530
sg12
Nsg13
(lp1940
sg137
(lp1941
sbag0
(g1
g2
Ntp1942
Rp1943
(dp1944
g6
I01
sg7
g1533
sg9
g10
sg11
g1542
sg12
Nsg13
(lp1945
sg137
(lp1946
sbag0
(g1
g2
Ntp1947
Rp1948
(dp1949
g6
I01
sg7
g1545
sg9
g10
sg11
g1554
sg12
Nsg13
(lp1950
sg137
(lp1951
sbag0
(g1
g2
Ntp1952
Rp1953
(dp1954
g6
I01
sg7
g1557
sg9
g10
sg11
g1566
sg12
Nsg13
(lp1955
sg137
(lp1956
sbag0
(g1
g2
Ntp1957
Rp1958
(dp1959
g6
I01
sg7
g1569
sg9
g10
sg11
g1578
sg12
Nsg13
(lp1960
sg137
(lp1961
sbag0
(g1
g2
Ntp1962
Rp1963
(dp1964
g6
I01
sg7
g1581
sg9
g10
sg11
g1590
sg12
Nsg13
(lp1965
sg137
(lp1966
sbag0
(g1
g2
Ntp1967
Rp1968
(dp1969
g6
I01
sg7
g1593
sg9
g10
sg11
g1602
sg12
Nsg13
(lp1970
sg137
(lp1971
sbag0
(g1
g2
Ntp1972
Rp1973
(dp1974
g6
I01
sg7
g1605
sg9
g10
sg11
g1614
sg12
Nsg13
(lp1975
sg137
(lp1976
sbag0
(g1
g2
Ntp1977
Rp1978
(dp1979
g6
I01
sg7
g1617
sg9
g10
sg11
g1626
sg12
Nsg13
(lp1980
sg137
(lp1981
sbag0
(g1
g2
Ntp1982
Rp1983
(dp1984
g6
I01
sg7
g1629
sg9
g10
sg11
g1638
sg12
Nsg13
(lp1985
sg137
(lp1986
sbag0
(g1
g2
Ntp1987
Rp1988
(dp1989
g6
I01
sg7
g1641
sg9
g10
sg11
g1650
sg12
Nsg13
(lp1990
sg137
(lp1991
sbag0
(g1
g2
Ntp1992
Rp1993
(dp1994
g6
I01
sg7
g1653
sg9
g10
sg11
g1662
sg12
Nsg13
(lp1995
sg137
(lp1996
sbag0
(g1
g2
Ntp1997
Rp1998
(dp1999
g6
I01
sg7
g1665
sg9
g10
sg11
g1674
sg12
Nsg13
(lp2000
sg137
(lp2001
sbag0
(g1
g2
Ntp2002
Rp2003
(dp2004
g6
I01
sg7
g1677
sg9
g10
sg11
g1686
sg12
Nsg13
(lp2005
sg137
(lp2006
sbag0
(g1
g2
Ntp2007
Rp2008
(dp2009
g6
I01
sg7
g1689
sg9
g10
sg11
g1698
sg12
Nsg13
(lp2010
sg137
(lp2011
sbag0
(g1
g2
Ntp2012
Rp2013
(dp2014
g6
I01
sg7
g1701
sg9
g10
sg11
g1710
sg12
Nsg13
(lp2015
sg137
(lp2016
sbag0
(g1
g2
Ntp2017
Rp2018
(dp2019
g6
I01
sg7
g1713
sg9
g10
sg11
g1722
sg12
Nsg13
(lp2020
sg137
(lp2021
sbag0
(g1
g2
Ntp2022
Rp2023
(dp2024
g6
I01
sg7
g1725
sg9
g10
sg11
g1734
sg12
Nsg13
(lp2025
sg137
(lp2026
sbag0
(g1
g2
Ntp2027
Rp2028
(dp2029
g6
I01
sg7
g1737
sg9
g10
sg11
g1746
sg12
Nsg13
(lp2030
sg137
(lp2031
sbag0
(g1
g2
Ntp2032
Rp2033
(dp2034
g6
I01
sg7
g1749
sg9
g10
sg11
g1758
sg12
Nsg13
(lp2035
sg137
(lp2036
sbag0
(g1
g2
Ntp2037
Rp2038
(dp2039
g6
I01
sg7
g1761
sg9
g10
sg11
g1770
sg12
Nsg13
(lp2040
sg137
(lp2041
sbag0
(g1
g2
Ntp2042
Rp2043
(dp2044
g6
I01
sg7
g1773
sg9
g10
sg11
g1782
sg12
Nsg13
(lp2045
sg137
(lp2046
sbag0
(g1
g2
Ntp2047
Rp2048
(dp2049
g6
I01
sg7
g1785
sg9
g10
sg11
g1794
sg12
Nsg13
(lp2050
sg137
(lp2051
sbag0
(g1
g2
Ntp2052
Rp2053
(dp2054
g6
I01
sg7
g1797
sg9
g10
sg11
g1806
sg12
Nsg13
(lp2055
sg137
(lp2056
sbag0
(g1
g2
Ntp2057
Rp2058
(dp2059
g6
I01
sg7
g1809
sg9
g10
sg11
g1818
sg12
Nsg13
(lp2060
sg137
(lp2061
sbag0
(g1
g2
Ntp2062
Rp2063
(dp2064
g6
I01
sg7
g1821
sg9
g10
sg11
g1830
sg12
Nsg13
(lp2065
sg137
(lp2066
sbag0
(g1
g2
Ntp2067
Rp2068
(dp2069
g6
I01
sg7
g1833
sg9
g10
sg11
g1842
sg12
Nsg13
(lp2070
sg137
(lp2071
sbag0
(g1
g2
Ntp2072
Rp2073
(dp2074
g6
I01
sg7
g1845
sg9
g10
sg11
g1854
sg12
Nsg13
(lp2075
sg137
(lp2076
sbag0
(g1
g2
Ntp2077
Rp2078
(dp2079
g6
I01
sg7
g1857
sg9
g10
sg11
g1866
sg12
Nsg13
(lp2080
sg137
(lp2081
sbag0
(g1
g2
Ntp2082
Rp2083
(dp2084
g6
I01
sg7
g1869
sg9
g10
sg11
g1878
sg12
Nsg13
(lp2085
sg137
(lp2086
sbag0
(g1
g2
Ntp2087
Rp2088
(dp2089
g6
I01
sg7
g1881
sg9
g10
sg11
g1890
sg12
Nsg13
(lp2090
sg137
(lp2091
sbasbag0
(g1
g2
Ntp2092
Rp2093
(dp2094
g6
I00
sg7
g1196
sg9
g10
sg11
g1205
sg12
Nsg13
(lp2095
(dp2096
Vname
p2097
V\u5de5\u4e1a\u51fa\u53e3\u4ea4\u8d27\u503c
p2098
sVdbcode
p2099
Vhgyd
p2100
sVpid
p2101
VA0207
p2102
sVisParent
p2103
I00
sVwdcode
p2104
Vzb
p2105
sVid
p2106
VA020701
p2107
sa(dp2108
Vname
p2109
V\u7164\u70ad\u5f00\u91c7\u548c\u6d17\u9009\u4e1a
p2110
sVdbcode
p2111
Vhgyd
p2112
sVpid
p2113
VA0207
p2114
sVisParent
p2115
I00
sVwdcode
p2116
Vzb
p2117
sVid
p2118
VA020702
p2119
sa(dp2120
Vname
p2121
V\u77f3\u6cb9\u548c\u5929\u7136\u6c14\u5f00\u91c7\u4e1a
p2122
sVdbcode
p2123
Vhgyd
p2124
sVpid
p2125
VA0207
p2126
sVisParent
p2127
I00
sVwdcode
p2128
Vzb
p2129
sVid
p2130
VA020703
p2131
sa(dp2132
Vname
p2133
V\u9ed1\u8272\u91d1\u5c5e\u77ff\u91c7\u9009\u4e1a
p2134
sVdbcode
p2135
Vhgyd
p2136
sVpid
p2137
VA0207
p2138
sVisParent
p2139
I00
sVwdcode
p2140
Vzb
p2141
sVid
p2142
VA020704
p2143
sa(dp2144
Vname
p2145
V\u6709\u8272\u91d1\u5c5e\u77ff\u91c7\u9009\u4e1a
p2146
sVdbcode
p2147
Vhgyd
p2148
sVpid
p2149
VA0207
p2150
sVisParent
p2151
I00
sVwdcode
p2152
Vzb
p2153
sVid
p2154
VA020705
p2155
sa(dp2156
Vname
p2157
V\u975e\u91d1\u5c5e\u77ff\u91c7\u9009\u4e1a
p2158
sVdbcode
p2159
Vhgyd
p2160
sVpid
p2161
VA0207
p2162
sVisParent
p2163
I00
sVwdcode
p2164
Vzb
p2165
sVid
p2166
VA020706
p2167
sa(dp2168
Vname
p2169
V\u5f00\u91c7\u8f85\u52a9\u6d3b\u52a8
p2170
sVdbcode
p2171
Vhgyd
p2172
sVpid
p2173
VA0207
p2174
sVisParent
p2175
I00
sVwdcode
p2176
Vzb
p2177
sVid
p2178
VA020707
p2179
sa(dp2180
Vname
p2181
V\u5176\u4ed6\u91c7\u77ff\u4e1a
p2182
sVdbcode
p2183
Vhgyd
p2184
sVpid
p2185
VA0207
p2186
sVisParent
p2187
I00
sVwdcode
p2188
Vzb
p2189
sVid
p2190
VA020708
p2191
sa(dp2192
Vname
p2193
V\u519c\u526f\u98df\u54c1\u52a0\u5de5\u4e1a
p2194
sVdbcode
p2195
Vhgyd
p2196
sVpid
p2197
VA0207
p2198
sVisParent
p2199
I00
sVwdcode
p2200
Vzb
p2201
sVid
p2202
VA020709
p2203
sa(dp2204
Vname
p2205
V\u98df\u54c1\u5236\u9020\u4e1a
p2206
sVdbcode
p2207
Vhgyd
p2208
sVpid
p2209
VA0207
p2210
sVisParent
p2211
I00
sVwdcode
p2212
Vzb
p2213
sVid
p2214
VA02070A
p2215
sa(dp2216
Vname
p2217
V\u9152\u3001\u996e\u6599\u548c\u7cbe\u5236\u8336\u5236\u9020\u4e1a
p2218
sVdbcode
p2219
Vhgyd
p2220
sVpid
p2221
VA0207
p2222
sVisParent
p2223
I00
sVwdcode
p2224
Vzb
p2225
sVid
p2226
VA02070B
p2227
sa(dp2228
Vname
p2229
V\u70df\u8349\u5236\u54c1\u4e1a
p2230
sVdbcode
p2231
Vhgyd
p2232
sVpid
p2233
VA0207
p2234
sVisParent
p2235
I00
sVwdcode
p2236
Vzb
p2237
sVid
p2238
VA02070C
p2239
sa(dp2240
Vname
p2241
V\u7eba\u7ec7\u4e1a
p2242
sVdbcode
p2243
Vhgyd
p2244
sVpid
p2245
VA0207
p2246
sVisParent
p2247
I00
sVwdcode
p2248
Vzb
p2249
sVid
p2250
VA02070D
p2251
sa(dp2252
Vname
p2253
V\u7eba\u7ec7\u670d\u88c5\u3001\u670d\u9970\u4e1a
p2254
sVdbcode
p2255
Vhgyd
p2256
sVpid
p2257
VA0207
p2258
sVisParent
p2259
I00
sVwdcode
p2260
Vzb
p2261
sVid
p2262
VA02070E
p2263
sa(dp2264
Vname
p2265
V\u76ae\u9769\u3001\u6bdb\u76ae\u3001\u7fbd\u6bdb\u53ca\u5176\u5236\u54c1\u548c\u5236\u978b\u4e1a
p2266
sVdbcode
p2267
Vhgyd
p2268
sVpid
p2269
VA0207
p2270
sVisParent
p2271
I00
sVwdcode
p2272
Vzb
p2273
sVid
p2274
VA02070F
p2275
sa(dp2276
Vname
p2277
V\u6728\u6750\u52a0\u5de5\u53ca\u6728\u3001\u7af9\u3001\u85e4\u3001\u68d5\u3001\u8349\u5236\u54c1\u4e1a
p2278
sVdbcode
p2279
Vhgyd
p2280
sVpid
p2281
VA0207
p2282
sVisParent
p2283
I00
sVwdcode
p2284
Vzb
p2285
sVid
p2286
VA02070G
p2287
sa(dp2288
Vname
p2289
V\u5bb6\u5177\u5236\u9020\u4e1a
p2290
sVdbcode
p2291
Vhgyd
p2292
sVpid
p2293
VA0207
p2294
sVisParent
p2295
I00
sVwdcode
p2296
Vzb
p2297
sVid
p2298
VA02070H
p2299
sa(dp2300
Vname
p2301
V\u9020\u7eb8\u53ca\u7eb8\u5236\u54c1\u4e1a
p2302
sVdbcode
p2303
Vhgyd
p2304
sVpid
p2305
VA0207
p2306
sVisParent
p2307
I00
sVwdcode
p2308
Vzb
p2309
sVid
p2310
VA02070I
p2311
sa(dp2312
Vname
p2313
V\u5370\u5237\u548c\u8bb0\u5f55\u5a92\u4ecb\u590d\u5236\u4e1a
p2314
sVdbcode
p2315
Vhgyd
p2316
sVpid
p2317
VA0207
p2318
sVisParent
p2319
I00
sVwdcode
p2320
Vzb
p2321
sVid
p2322
VA02070J
p2323
sa(dp2324
Vname
p2325
V\u6587\u6559\u3001\u5de5\u7f8e\u3001\u4f53\u80b2\u548c\u5a31\u4e50\u7528\u54c1\u5236\u9020\u4e1a
p2326
sVdbcode
p2327
Vhgyd
p2328
sVpid
p2329
VA0207
p2330
sVisParent
p2331
I00
sVwdcode
p2332
Vzb
p2333
sVid
p2334
VA02070K
p2335
sa(dp2336
Vname
p2337
V\u77f3\u6cb9\u52a0\u5de5\u3001\u70bc\u7126\u53ca\u6838\u71c3\u6599\u52a0\u5de5\u4e1a
p2338
sVdbcode
p2339
Vhgyd
p2340
sVpid
p2341
VA0207
p2342
sVisParent
p2343
I00
sVwdcode
p2344
Vzb
p2345
sVid
p2346
VA02070L
p2347
sa(dp2348
Vname
p2349
V\u5316\u5b66\u539f\u6599\u53ca\u5316\u5b66\u5236\u54c1\u5236\u9020\u4e1a
p2350
sVdbcode
p2351
Vhgyd
p2352
sVpid
p2353
VA0207
p2354
sVisParent
p2355
I00
sVwdcode
p2356
Vzb
p2357
sVid
p2358
VA02070M
p2359
sa(dp2360
Vname
p2361
V\u533b\u836f\u5236\u9020\u4e1a
p2362
sVdbcode
p2363
Vhgyd
p2364
sVpid
p2365
VA0207
p2366
sVisParent
p2367
I00
sVwdcode
p2368
Vzb
p2369
sVid
p2370
VA02070N
p2371
sa(dp2372
Vname
p2373
V\u5316\u5b66\u7ea4\u7ef4\u5236\u9020\u4e1a
p2374
sVdbcode
p2375
Vhgyd
p2376
sVpid
p2377
VA0207
p2378
sVisParent
p2379
I00
sVwdcode
p2380
Vzb
p2381
sVid
p2382
VA02070O
p2383
sa(dp2384
Vname
p2385
V\u6a61\u80f6\u548c\u5851\u6599\u5236\u54c1\u4e1a
p2386
sVdbcode
p2387
Vhgyd
p2388
sVpid
p2389
VA0207
p2390
sVisParent
p2391
I00
sVwdcode
p2392
Vzb
p2393
sVid
p2394
VA02070P
p2395
sa(dp2396
Vname
p2397
V\u975e\u91d1\u5c5e\u77ff\u7269\u5236\u54c1\u4e1a
p2398
sVdbcode
p2399
Vhgyd
p2400
sVpid
p2401
VA0207
p2402
sVisParent
p2403
I00
sVwdcode
p2404
Vzb
p2405
sVid
p2406
VA02070Q
p2407
sa(dp2408
Vname
p2409
V\u9ed1\u8272\u91d1\u5c5e\u51b6\u70bc\u53ca\u538b\u5ef6\u52a0\u5de5\u4e1a
p2410
sVdbcode
p2411
Vhgyd
p2412
sVpid
p2413
VA0207
p2414
sVisParent
p2415
I00
sVwdcode
p2416
Vzb
p2417
sVid
p2418
VA02070R
p2419
sa(dp2420
Vname
p2421
V\u6709\u8272\u91d1\u5c5e\u51b6\u70bc\u53ca\u538b\u5ef6\u52a0\u5de5\u4e1a
p2422
sVdbcode
p2423
Vhgyd
p2424
sVpid
p2425
VA0207
p2426
sVisParent
p2427
I00
sVwdcode
p2428
Vzb
p2429
sVid
p2430
VA02070S
p2431
sa(dp2432
Vname
p2433
V\u91d1\u5c5e\u5236\u54c1\u4e1a
p2434
sVdbcode
p2435
Vhgyd
p2436
sVpid
p2437
VA0207
p2438
sVisParent
p2439
I00
sVwdcode
p2440
Vzb
p2441
sVid
p2442
VA02070T
p2443
sa(dp2444
Vname
p2445
V\u901a\u7528\u8bbe\u5907\u5236\u9020\u4e1a
p2446
sVdbcode
p2447
Vhgyd
p2448
sVpid
p2449
VA0207
p2450
sVisParent
p2451
I00
sVwdcode
p2452
Vzb
p2453
sVid
p2454
VA02070U
p2455
sa(dp2456
Vname
p2457
V\u4e13\u7528\u8bbe\u5907\u5236\u9020\u4e1a
p2458
sVdbcode
p2459
Vhgyd
p2460
sVpid
p2461
VA0207
p2462
sVisParent
p2463
I00
sVwdcode
p2464
Vzb
p2465
sVid
p2466
VA02070V
p2467
sa(dp2468
Vname
p2469
V\u6c7d\u8f66\u5236\u9020\u4e1a
p2470
sVdbcode
p2471
Vhgyd
p2472
sVpid
p2473
VA0207
p2474
sVisParent
p2475
I00
sVwdcode
p2476
Vzb
p2477
sVid
p2478
VA02070W
p2479
sa(dp2480
Vname
p2481
V\u94c1\u8def\u3001\u8239\u8236\u3001\u822a\u7a7a\u822a\u5929\u548c\u5176\u4ed6\u8fd0\u8f93\u8bbe\u5907\u5236\u9020\u4e1a
p2482
sVdbcode
p2483
Vhgyd
p2484
sVpid
p2485
VA0207
p2486
sVisParent
p2487
I00
sVwdcode
p2488
Vzb
p2489
sVid
p2490
VA02070X
p2491
sa(dp2492
Vname
p2493
V\u7535\u6c14\u673a\u68b0\u53ca\u5668\u6750\u5236\u9020\u4e1a
p2494
sVdbcode
p2495
Vhgyd
p2496
sVpid
p2497
VA0207
p2498
sVisParent
p2499
I00
sVwdcode
p2500
Vzb
p2501
sVid
p2502
VA02070Y
p2503
sa(dp2504
Vname
p2505
V\u901a\u4fe1\u8bbe\u5907\u3001\u8ba1\u7b97\u673a\u53ca\u5176\u4ed6\u7535\u5b50\u8bbe\u5907\u5236\u9020\u4e1a
p2506
sVdbcode
p2507
Vhgyd
p2508
sVpid
p2509
VA0207
p2510
sVisParent
p2511
I00
sVwdcode
p2512
Vzb
p2513
sVid
p2514
VA02070Z
p2515
sa(dp2516
Vname
p2517
V\u4eea\u5668\u4eea\u8868\u5236\u9020\u4e1a
p2518
sVdbcode
p2519
Vhgyd
p2520
sVpid
p2521
VA0207
p2522
sVisParent
p2523
I00
sVwdcode
p2524
Vzb
p2525
sVid
p2526
VA020710
p2527
sa(dp2528
Vname
p2529
V\u5176\u4ed6\u5236\u9020\u4e1a
p2530
sVdbcode
p2531
Vhgyd
p2532
sVpid
p2533
VA0207
p2534
sVisParent
p2535
I00
sVwdcode
p2536
Vzb
p2537
sVid
p2538
VA020711
p2539
sa(dp2540
Vname
p2541
V\u5e9f\u5f03\u8d44\u6e90\u7efc\u5408\u5229\u7528\u4e1a
p2542
sVdbcode
p2543
Vhgyd
p2544
sVpid
p2545
VA0207
p2546
sVisParent
p2547
I00
sVwdcode
p2548
Vzb
p2549
sVid
p2550
VA020712
p2551
sa(dp2552
Vname
p2553
V\u91d1\u5c5e\u5236\u54c1\u3001\u673a\u68b0\u548c\u8bbe\u5907\u4fee\u7406\u4e1a
p2554
sVdbcode
p2555
Vhgyd
p2556
sVpid
p2557
VA0207
p2558
sVisParent
p2559
I00
sVwdcode
p2560
Vzb
p2561
sVid
p2562
VA020713
p2563
sa(dp2564
Vname
p2565
V\u7535\u529b\u3001\u70ed\u529b\u7684\u751f\u4ea7\u548c\u4f9b\u5e94\u4e1a
p2566
sVdbcode
p2567
Vhgyd
p2568
sVpid
p2569
VA0207
p2570
sVisParent
p2571
I00
sVwdcode
p2572
Vzb
p2573
sVid
p2574
VA020714
p2575
sa(dp2576
Vname
p2577
V\u71c3\u6c14\u751f\u4ea7\u548c\u4f9b\u5e94\u4e1a
p2578
sVdbcode
p2579
Vhgyd
p2580
sVpid
p2581
VA0207
p2582
sVisParent
p2583
I00
sVwdcode
p2584
Vzb
p2585
sVid
p2586
VA020715
p2587
sa(dp2588
Vname
p2589
V\u6c34\u7684\u751f\u4ea7\u548c\u4f9b\u5e94\u4e1a
p2590
sVdbcode
p2591
Vhgyd
p2592
sVpid
p2593
VA0207
p2594
sVisParent
p2595
I00
sVwdcode
p2596
Vzb
p2597
sVid
p2598
VA020716
p2599
sasg137
(lp2600
g0
(g1
g2
Ntp2601
Rp2602
(dp2603
g6
I01
sg7
g2098
sg9
g10
sg11
g2107
sg12
Nsg13
(lp2604
sg137
(lp2605
sbag0
(g1
g2
Ntp2606
Rp2607
(dp2608
g6
I01
sg7
g2110
sg9
g10
sg11
g2119
sg12
Nsg13
(lp2609
sg137
(lp2610
sbag0
(g1
g2
Ntp2611
Rp2612
(dp2613
g6
I01
sg7
g2122
sg9
g10
sg11
g2131
sg12
Nsg13
(lp2614
sg137
(lp2615
sbag0
(g1
g2
Ntp2616
Rp2617
(dp2618
g6
I01
sg7
g2134
sg9
g10
sg11
g2143
sg12
Nsg13
(lp2619
sg137
(lp2620
sbag0
(g1
g2
Ntp2621
Rp2622
(dp2623
g6
I01
sg7
g2146
sg9
g10
sg11
g2155
sg12
Nsg13
(lp2624
sg137
(lp2625
sbag0
(g1
g2
Ntp2626
Rp2627
(dp2628
g6
I01
sg7
g2158
sg9
g10
sg11
g2167
sg12
Nsg13
(lp2629
sg137
(lp2630
sbag0
(g1
g2
Ntp2631
Rp2632
(dp2633
g6
I01
sg7
g2170
sg9
g10
sg11
g2179
sg12
Nsg13
(lp2634
sg137
(lp2635
sbag0
(g1
g2
Ntp2636
Rp2637
(dp2638
g6
I01
sg7
g2182
sg9
g10
sg11
g2191
sg12
Nsg13
(lp2639
sg137
(lp2640
sbag0
(g1
g2
Ntp2641
Rp2642
(dp2643
g6
I01
sg7
g2194
sg9
g10
sg11
g2203
sg12
Nsg13
(lp2644
sg137
(lp2645
sbag0
(g1
g2
Ntp2646
Rp2647
(dp2648
g6
I01
sg7
g2206
sg9
g10
sg11
g2215
sg12
Nsg13
(lp2649
sg137
(lp2650
sbag0
(g1
g2
Ntp2651
Rp2652
(dp2653
g6
I01
sg7
g2218
sg9
g10
sg11
g2227
sg12
Nsg13
(lp2654
sg137
(lp2655
sbag0
(g1
g2
Ntp2656
Rp2657
(dp2658
g6
I01
sg7
g2230
sg9
g10
sg11
g2239
sg12
Nsg13
(lp2659
sg137
(lp2660
sbag0
(g1
g2
Ntp2661
Rp2662
(dp2663
g6
I01
sg7
g2242
sg9
g10
sg11
g2251
sg12
Nsg13
(lp2664
sg137
(lp2665
sbag0
(g1
g2
Ntp2666
Rp2667
(dp2668
g6
I01
sg7
g2254
sg9
g10
sg11
g2263
sg12
Nsg13
(lp2669
sg137
(lp2670
sbag0
(g1
g2
Ntp2671
Rp2672
(dp2673
g6
I01
sg7
g2266
sg9
g10
sg11
g2275
sg12
Nsg13
(lp2674
sg137
(lp2675
sbag0
(g1
g2
Ntp2676
Rp2677
(dp2678
g6
I01
sg7
g2278
sg9
g10
sg11
g2287
sg12
Nsg13
(lp2679
sg137
(lp2680
sbag0
(g1
g2
Ntp2681
Rp2682
(dp2683
g6
I01
sg7
g2290
sg9
g10
sg11
g2299
sg12
Nsg13
(lp2684
sg137
(lp2685
sbag0
(g1
g2
Ntp2686
Rp2687
(dp2688
g6
I01
sg7
g2302
sg9
g10
sg11
g2311
sg12
Nsg13
(lp2689
sg137
(lp2690
sbag0
(g1
g2
Ntp2691
Rp2692
(dp2693
g6
I01
sg7
g2314
sg9
g10
sg11
g2323
sg12
Nsg13
(lp2694
sg137
(lp2695
sbag0
(g1
g2
Ntp2696
Rp2697
(dp2698
g6
I01
sg7
g2326
sg9
g10
sg11
g2335
sg12
Nsg13
(lp2699
sg137
(lp2700
sbag0
(g1
g2
Ntp2701
Rp2702
(dp2703
g6
I01
sg7
g2338
sg9
g10
sg11
g2347
sg12
Nsg13
(lp2704
sg137
(lp2705
sbag0
(g1
g2
Ntp2706
Rp2707
(dp2708
g6
I01
sg7
g2350
sg9
g10
sg11
g2359
sg12
Nsg13
(lp2709
sg137
(lp2710
sbag0
(g1
g2
Ntp2711
Rp2712
(dp2713
g6
I01
sg7
g2362
sg9
g10
sg11
g2371
sg12
Nsg13
(lp2714
sg137
(lp2715
sbag0
(g1
g2
Ntp2716
Rp2717
(dp2718
g6
I01
sg7
g2374
sg9
g10
sg11
g2383
sg12
Nsg13
(lp2719
sg137
(lp2720
sbag0
(g1
g2
Ntp2721
Rp2722
(dp2723
g6
I01
sg7
g2386
sg9
g10
sg11
g2395
sg12
Nsg13
(lp2724
sg137
(lp2725
sbag0
(g1
g2
Ntp2726
Rp2727
(dp2728
g6
I01
sg7
g2398
sg9
g10
sg11
g2407
sg12
Nsg13
(lp2729
sg137
(lp2730
sbag0
(g1
g2
Ntp2731
Rp2732
(dp2733
g6
I01
sg7
g2410
sg9
g10
sg11
g2419
sg12
Nsg13
(lp2734
sg137
(lp2735
sbag0
(g1
g2
Ntp2736
Rp2737
(dp2738
g6
I01
sg7
g2422
sg9
g10
sg11
g2431
sg12
Nsg13
(lp2739
sg137
(lp2740
sbag0
(g1
g2
Ntp2741
Rp2742
(dp2743
g6
I01
sg7
g2434
sg9
g10
sg11
g2443
sg12
Nsg13
(lp2744
sg137
(lp2745
sbag0
(g1
g2
Ntp2746
Rp2747
(dp2748
g6
I01
sg7
g2446
sg9
g10
sg11
g2455
sg12
Nsg13
(lp2749
sg137
(lp2750
sbag0
(g1
g2
Ntp2751
Rp2752
(dp2753
g6
I01
sg7
g2458
sg9
g10
sg11
g2467
sg12
Nsg13
(lp2754
sg137
(lp2755
sbag0
(g1
g2
Ntp2756
Rp2757
(dp2758
g6
I01
sg7
g2470
sg9
g10
sg11
g2479
sg12
Nsg13
(lp2759
sg137
(lp2760
sbag0
(g1
g2
Ntp2761
Rp2762
(dp2763
g6
I01
sg7
g2482
sg9
g10
sg11
g2491
sg12
Nsg13
(lp2764
sg137
(lp2765
sbag0
(g1
g2
Ntp2766
Rp2767
(dp2768
g6
I01
sg7
g2494
sg9
g10
sg11
g2503
sg12
Nsg13
(lp2769
sg137
(lp2770
sbag0
(g1
g2
Ntp2771
Rp2772
(dp2773
g6
I01
sg7
g2506
sg9
g10
sg11
g2515
sg12
Nsg13
(lp2774
sg137
(lp2775
sbag0
(g1
g2
Ntp2776
Rp2777
(dp2778
g6
I01
sg7
g2518
sg9
g10
sg11
g2527
sg12
Nsg13
(lp2779
sg137
(lp2780
sbag0
(g1
g2
Ntp2781
Rp2782
(dp2783
g6
I01
sg7
g2530
sg9
g10
sg11
g2539
sg12
Nsg13
(lp2784
sg137
(lp2785
sbag0
(g1
g2
Ntp2786
Rp2787
(dp2788
g6
I01
sg7
g2542
sg9
g10
sg11
g2551
sg12
Nsg13
(lp2789
sg137
(lp2790
sbag0
(g1
g2
Ntp2791
Rp2792
(dp2793
g6
I01
sg7
g2554
sg9
g10
sg11
g2563
sg12
Nsg13
(lp2794
sg137
(lp2795
sbag0
(g1
g2
Ntp2796
Rp2797
(dp2798
g6
I01
sg7
g2566
sg9
g10
sg11
g2575
sg12
Nsg13
(lp2799
sg137
(lp2800
sbag0
(g1
g2
Ntp2801
Rp2802
(dp2803
g6
I01
sg7
g2578
sg9
g10
sg11
g2587
sg12
Nsg13
(lp2804
sg137
(lp2805
sbag0
(g1
g2
Ntp2806
Rp2807
(dp2808
g6
I01
sg7
g2590
sg9
g10
sg11
g2599
sg12
Nsg13
(lp2809
sg137
(lp2810
sbasbag0
(g1
g2
Ntp2811
Rp2812
(dp2813
g6
I00
sg7
g1208
sg9
g10
sg11
g1217
sg12
Nsg13
(lp2814
(dp2815
Vname
p2816
V\u5929\u7136\u539f\u6cb9
p2817
sVdbcode
p2818
Vhgyd
p2819
sVpid
p2820
VA0208
p2821
sVisParent
p2822
I00
sVwdcode
p2823
Vzb
p2824
sVid
p2825
VA020801
p2826
sa(dp2827
Vname
p2828
V\u94c1\u77ff\u77f3\u539f\u77ff\u91cf
p2829
sVdbcode
p2830
Vhgyd
p2831
sVpid
p2832
VA0208
p2833
sVisParent
p2834
I00
sVwdcode
p2835
Vzb
p2836
sVid
p2837
VA020802
p2838
sa(dp2839
Vname
p2840
V\u78f7\u77ff\u77f3
p2841
sVdbcode
p2842
Vhgyd
p2843
sVpid
p2844
VA0208
p2845
sVisParent
p2846
I00
sVwdcode
p2847
Vzb
p2848
sVid
p2849
VA020803
p2850
sa(dp2851
Vname
p2852
V\u539f\u76d0
p2853
sVdbcode
p2854
Vhgyd
p2855
sVpid
p2856
VA0208
p2857
sVisParent
p2858
I00
sVwdcode
p2859
Vzb
p2860
sVid
p2861
VA020804
p2862
sa(dp2863
Vname
p2864
V\u6210\u54c1\u7cd6
p2865
sVdbcode
p2866
Vhgyd
p2867
sVpid
p2868
VA0208
p2869
sVisParent
p2870
I00
sVwdcode
p2871
Vzb
p2872
sVid
p2873
VA020805
p2874
sa(dp2875
Vname
p2876
V\u8f6f\u996e\u6599
p2877
sVdbcode
p2878
Vhgyd
p2879
sVpid
p2880
VA0208
p2881
sVisParent
p2882
I00
sVwdcode
p2883
Vzb
p2884
sVid
p2885
VA020806
p2886
sa(dp2887
Vname
p2888
V\u7eb1
p2889
sVdbcode
p2890
Vhgyd
p2891
sVpid
p2892
VA0208
p2893
sVisParent
p2894
I00
sVwdcode
p2895
Vzb
p2896
sVid
p2897
VA020807
p2898
sa(dp2899
Vname
p2900
V\u5e03
p2901
sVdbcode
p2902
Vhgyd
p2903
sVpid
p2904
VA0208
p2905
sVisParent
p2906
I00
sVwdcode
p2907
Vzb
p2908
sVid
p2909
VA020808
p2910
sa(dp2911
Vname
p2912
V\u8695\u4e1d\u53ca\u4ea4\u7ec7\u673a\u7ec7\u7269(\u542b\u8695\u91cf\u226750%)
p2913
sVdbcode
p2914
Vhgyd
p2915
sVpid
p2916
VA0208
p2917
sVisParent
p2918
I00
sVwdcode
p2919
Vzb
p2920
sVid
p2921
VA020809
p2922
sa(dp2923
Vname
p2924
V\u673a\u5236\u7eb8\u53ca\u7eb8\u677f
p2925
sVdbcode
p2926
Vhgyd
p2927
sVpid
p2928
VA0208
p2929
sVisParent
p2930
I00
sVwdcode
p2931
Vzb
p2932
sVid
p2933
VA02080A
p2934
sa(dp2935
Vname
p2936
V\u65b0\u95fb\u7eb8
p2937
sVdbcode
p2938
Vhgyd
p2939
sVpid
p2940
VA0208
p2941
sVisParent
p2942
I00
sVwdcode
p2943
Vzb
p2944
sVid
p2945
VA02080B
p2946
sa(dp2947
Vname
p2948
V\u6c7d\u6cb9
p2949
sVdbcode
p2950
Vhgyd
p2951
sVpid
p2952
VA0208
p2953
sVisParent
p2954
I00
sVwdcode
p2955
Vzb
p2956
sVid
p2957
VA02080C
p2958
sa(dp2959
Vname
p2960
V\u7164\u6cb9
p2961
sVdbcode
p2962
Vhgyd
p2963
sVpid
p2964
VA0208
p2965
sVisParent
p2966
I00
sVwdcode
p2967
Vzb
p2968
sVid
p2969
VA02080D
p2970
sa(dp2971
Vname
p2972
V\u67f4\u6cb9
p2973
sVdbcode
p2974
Vhgyd
p2975
sVpid
p2976
VA0208
p2977
sVisParent
p2978
I00
sVwdcode
p2979
Vzb
p2980
sVid
p2981
VA02080E
p2982
sa(dp2983
Vname
p2984
V\u7126\u70ad
p2985
sVdbcode
p2986
Vhgyd
p2987
sVpid
p2988
VA0208
p2989
sVisParent
p2990
I00
sVwdcode
p2991
Vzb
p2992
sVid
p2993
VA02080F
p2994
sa(dp2995
Vname
p2996
V\u786b\u9178
p2997
sVdbcode
p2998
Vhgyd
p2999
sVpid
p3000
VA0208
p3001
sVisParent
p3002
I00
sVwdcode
p3003
Vzb
p3004
sVid
p3005
VA02080G
p3006
sa(dp3007
Vname
p3008
V\u70e7\u78b1(\u6298100%)
p3009
sVdbcode
p3010
Vhgyd
p3011
sVpid
p3012
VA0208
p3013
sVisParent
p3014
I00
sVwdcode
p3015
Vzb
p3016
sVid
p3017
VA02080H
p3018
sa(dp3019
Vname
p3020
V\u7eaf\u78b1(\u78b3\u9178\u94a0)
p3021
sVdbcode
p3022
Vhgyd
p3023
sVpid
p3024
VA0208
p3025
sVisParent
p3026
I00
sVwdcode
p3027
Vzb
p3028
sVid
p3029
VA02080I
p3030
sa(dp3031
Vname
p3032
V\u519c\u7528\u6c2e\u78f7\u94be\u5316\u80a5(\u6298\u7eaf)
p3033
sVdbcode
p3034
Vhgyd
p3035
sVpid
p3036
VA0208
p3037
sVisParent
p3038
I00
sVwdcode
p3039
Vzb
p3040
sVid
p3041
VA02080J
p3042
sa(dp3043
Vname
p3044
V\u5316\u5b66\u519c\u836f\u539f\u836f
p3045
sVdbcode
p3046
Vhgyd
p3047
sVpid
p3048
VA0208
p3049
sVisParent
p3050
I00
sVwdcode
p3051
Vzb
p3052
sVid
p3053
VA02080K
p3054
sa(dp3055
Vname
p3056
V\u4e59\u70ef
p3057
sVdbcode
p3058
Vhgyd
p3059
sVpid
p3060
VA0208
p3061
sVisParent
p3062
I00
sVwdcode
p3063
Vzb
p3064
sVid
p3065
VA02080L
p3066
sa(dp3067
Vname
p3068
V\u521d\u7ea7\u5f62\u6001\u7684\u5851\u6599
p3069
sVdbcode
p3070
Vhgyd
p3071
sVpid
p3072
VA0208
p3073
sVisParent
p3074
I00
sVwdcode
p3075
Vzb
p3076
sVid
p3077
VA02080M
p3078
sa(dp3079
Vname
p3080
V\u5408\u6210\u6d17\u6da4\u5242
p3081
sVdbcode
p3082
Vhgyd
p3083
sVpid
p3084
VA0208
p3085
sVisParent
p3086
I00
sVwdcode
p3087
Vzb
p3088
sVid
p3089
VA02080N
p3090
sa(dp3091
Vname
p3092
V\u5316\u5b66\u7ea4\u7ef4
p3093
sVdbcode
p3094
Vhgyd
p3095
sVpid
p3096
VA0208
p3097
sVisParent
p3098
I00
sVwdcode
p3099
Vzb
p3100
sVid
p3101
VA02080O
p3102
sa(dp3103
Vname
p3104
V\u5851\u6599\u5236\u54c1
p3105
sVdbcode
p3106
Vhgyd
p3107
sVpid
p3108
VA0208
p3109
sVisParent
p3110
I00
sVwdcode
p3111
Vzb
p3112
sVid
p3113
VA02080P
p3114
sa(dp3115
Vname
p3116
V\u6c34\u6ce5
p3117
sVdbcode
p3118
Vhgyd
p3119
sVpid
p3120
VA0208
p3121
sVisParent
p3122
I00
sVwdcode
p3123
Vzb
p3124
sVid
p3125
VA02080Q
p3126
sa(dp3127
Vname
p3128
V\u5e73\u677f\u73bb\u7483
p3129
sVdbcode
p3130
Vhgyd
p3131
sVpid
p3132
VA0208
p3133
sVisParent
p3134
I00
sVwdcode
p3135
Vzb
p3136
sVid
p3137
VA02080R
p3138
sa(dp3139
Vname
p3140
V\u751f\u94c1
p3141
sVdbcode
p3142
Vhgyd
p3143
sVpid
p3144
VA0208
p3145
sVisParent
p3146
I00
sVwdcode
p3147
Vzb
p3148
sVid
p3149
VA02080S
p3150
sa(dp3151
Vname
p3152
V\u7c97\u94a2
p3153
sVdbcode
p3154
Vhgyd
p3155
sVpid
p3156
VA0208
p3157
sVisParent
p3158
I00
sVwdcode
p3159
Vzb
p3160
sVid
p3161
VA02080T
p3162
sa(dp3163
Vname
p3164
V\u94a2\u6750
p3165
sVdbcode
p3166
Vhgyd
p3167
sVpid
p3168
VA0208
p3169
sVisParent
p3170
I00
sVwdcode
p3171
Vzb
p3172
sVid
p3173
VA02080U
p3174
sa(dp3175
Vname
p3176
V\u5341\u79cd\u6709\u8272\u91d1\u5c5e
p3177
sVdbcode
p3178
Vhgyd
p3179
sVpid
p3180
VA0208
p3181
sVisParent
p3182
I00
sVwdcode
p3183
Vzb
p3184
sVid
p3185
VA02080V
p3186
sa(dp3187
Vname
p3188
V\u6c27\u5316\u94dd
p3189
sVdbcode
p3190
Vhgyd
p3191
sVpid
p3192
VA0208
p3193
sVisParent
p3194
I00
sVwdcode
p3195
Vzb
p3196
sVid
p3197
VA02080W
p3198
sa(dp3199
Vname
p3200
V\u94dc\u6750
p3201
sVdbcode
p3202
Vhgyd
p3203
sVpid
p3204
VA0208
p3205
sVisParent
p3206
I00
sVwdcode
p3207
Vzb
p3208
sVid
p3209
VA02080X
p3210
sa(dp3211
Vname
p3212
V\u94dd\u6750
p3213
sVdbcode
p3214
Vhgyd
p3215
sVpid
p3216
VA0208
p3217
sVisParent
p3218
I00
sVwdcode
p3219
Vzb
p3220
sVid
p3221
VA02080Y
p3222
sa(dp3223
Vname
p3224
V\u5de5\u4e1a\u9505\u7089
p3225
sVdbcode
p3226
Vhgyd
p3227
sVpid
p3228
VA0208
p3229
sVisParent
p3230
I00
sVwdcode
p3231
Vzb
p3232
sVid
p3233
VA02080Z
p3234
sa(dp3235
Vname
p3236
V\u53d1\u52a8\u673a
p3237
sVdbcode
p3238
Vhgyd
p3239
sVpid
p3240
VA0208
p3241
sVisParent
p3242
I00
sVwdcode
p3243
Vzb
p3244
sVid
p3245
VA020810
p3246
sa(dp3247
Vname
p3248
V\u91d1\u5c5e\u5207\u524a\u673a\u5e8a
p3249
sVdbcode
p3250
Vhgyd
p3251
sVpid
p3252
VA0208
p3253
sVisParent
p3254
I00
sVwdcode
p3255
Vzb
p3256
sVid
p3257
VA020811
p3258
sa(dp3259
Vname
p3260
V\u7535\u52a8\u624b\u63d0\u5f0f\u5de5\u5177
p3261
sVdbcode
p3262
Vhgyd
p3263
sVpid
p3264
VA0208
p3265
sVisParent
p3266
I00
sVwdcode
p3267
Vzb
p3268
sVid
p3269
VA020812
p3270
sa(dp3271
Vname
p3272
V\u91d1\u5c5e\u51b6\u70bc\u8bbe\u5907
p3273
sVdbcode
p3274
Vhgyd
p3275
sVpid
p3276
VA0208
p3277
sVisParent
p3278
I00
sVwdcode
p3279
Vzb
p3280
sVid
p3281
VA020813
p3282
sa(dp3283
Vname
p3284
V\u6c34\u6ce5\u4e13\u7528\u8bbe\u5907
p3285
sVdbcode
p3286
Vhgyd
p3287
sVpid
p3288
VA0208
p3289
sVisParent
p3290
I00
sVwdcode
p3291
Vzb
p3292
sVid
p3293
VA020814
p3294
sa(dp3295
Vname
p3296
V\u9972\u6599\u751f\u4ea7\u4e13\u7528\u8bbe\u5907
p3297
sVdbcode
p3298
Vhgyd
p3299
sVpid
p3300
VA0208
p3301
sVisParent
p3302
I00
sVwdcode
p3303
Vzb
p3304
sVid
p3305
VA020815
p3306
sa(dp3307
Vname
p3308
V\u5305\u88c5\u4e13\u7528\u8bbe\u5907
p3309
sVdbcode
p3310
Vhgyd
p3311
sVpid
p3312
VA0208
p3313
sVisParent
p3314
I00
sVwdcode
p3315
Vzb
p3316
sVid
p3317
VA020816
p3318
sa(dp3319
Vname
p3320
V\u5927\u4e2d\u578b\u62d6\u62c9\u673a
p3321
sVdbcode
p3322
Vhgyd
p3323
sVpid
p3324
VA0208
p3325
sVisParent
p3326
I00
sVwdcode
p3327
Vzb
p3328
sVid
p3329
VA020817
p3330
sa(dp3331
Vname
p3332
V\u5927\u578b\u62d6\u62c9\u673a
p3333
sVdbcode
p3334
Vhgyd
p3335
sVpid
p3336
VA0208
p3337
sVisParent
p3338
I00
sVwdcode
p3339
Vzb
p3340
sVid
p3341
VA020818
p3342
sa(dp3343
Vname
p3344
V\u4e2d\u578b\u62d6\u62c9\u673a
p3345
sVdbcode
p3346
Vhgyd
p3347
sVpid
p3348
VA0208
p3349
sVisParent
p3350
I00
sVwdcode
p3351
Vzb
p3352
sVid
p3353
VA020819
p3354
sa(dp3355
Vname
p3356
V\u5c0f\u578b\u62d6\u62c9\u673a
p3357
sVdbcode
p3358
Vhgyd
p3359
sVpid
p3360
VA0208
p3361
sVisParent
p3362
I00
sVwdcode
p3363
Vzb
p3364
sVid
p3365
VA02081A
p3366
sa(dp3367
Vname
p3368
V\u5927\u6c14\u6c61\u67d3\u9632\u6cbb\u8bbe\u5907
p3369
sVdbcode
p3370
Vhgyd
p3371
sVpid
p3372
VA0208
p3373
sVisParent
p3374
I00
sVwdcode
p3375
Vzb
p3376
sVid
p3377
VA02081B
p3378
sa(dp3379
Vname
p3380
V\u94c1\u8def\u673a\u8f66
p3381
sVdbcode
p3382
Vhgyd
p3383
sVpid
p3384
VA0208
p3385
sVisParent
p3386
I00
sVwdcode
p3387
Vzb
p3388
sVid
p3389
VA02081C
p3390
sa(dp3391
Vname
p3392
V\u6c7d\u8f66
p3393
sVdbcode
p3394
Vhgyd
p3395
sVpid
p3396
VA0208
p3397
sVisParent
p3398
I00
sVwdcode
p3399
Vzb
p3400
sVid
p3401
VA02081D
p3402
sa(dp3403
Vname
p3404
V\u8f7f\u8f66
p3405
sVdbcode
p3406
Vhgyd
p3407
sVpid
p3408
VA0208
p3409
sVisParent
p3410
I00
sVwdcode
p3411
Vzb
p3412
sVid
p3413
VA02081E
p3414
sa(dp3415
Vname
p3416
V\u6c11\u7528\u94a2\u8d28\u8239\u8236
p3417
sVdbcode
p3418
Vhgyd
p3419
sVpid
p3420
VA0208
p3421
sVisParent
p3422
I00
sVwdcode
p3423
Vzb
p3424
sVid
p3425
VA02081F
p3426
sa(dp3427
Vname
p3428
V\u53d1\u7535\u8bbe\u5907
p3429
sVdbcode
p3430
Vhgyd
p3431
sVpid
p3432
VA0208
p3433
sVisParent
p3434
I00
sVwdcode
p3435
Vzb
p3436
sVid
p3437
VA02081G
p3438
sa(dp3439
Vname
p3440
V\u4ea4\u6d41\u7535\u52a8\u673a
p3441
sVdbcode
p3442
Vhgyd
p3443
sVpid
p3444
VA0208
p3445
sVisParent
p3446
I00
sVwdcode
p3447
Vzb
p3448
sVid
p3449
VA02081H
p3450
sa(dp3451
Vname
p3452
V\u5bb6\u7528\u6d17\u8863\u673a
p3453
sVdbcode
p3454
Vhgyd
p3455
sVpid
p3456
VA0208
p3457
sVisParent
p3458
I00
sVwdcode
p3459
Vzb
p3460
sVid
p3461
VA02081I
p3462
sa(dp3463
Vname
p3464
V\u5bb6\u7528\u7535\u51b0\u7bb1
p3465
sVdbcode
p3466
Vhgyd
p3467
sVpid
p3468
VA0208
p3469
sVisParent
p3470
I00
sVwdcode
p3471
Vzb
p3472
sVid
p3473
VA02081J
p3474
sa(dp3475
Vname
p3476
V\u5bb6\u7528\u51b7\u67dc
p3477
sVdbcode
p3478
Vhgyd
p3479
sVpid
p3480
VA0208
p3481
sVisParent
p3482
I00
sVwdcode
p3483
Vzb
p3484
sVid
p3485
VA02081K
p3486
sa(dp3487
Vname
p3488
V\u623f\u95f4\u7a7a\u6c14\u8c03\u8282\u5668
p3489
sVdbcode
p3490
Vhgyd
p3491
sVpid
p3492
VA0208
p3493
sVisParent
p3494
I00
sVwdcode
p3495
Vzb
p3496
sVid
p3497
VA02081L
p3498
sa(dp3499
Vname
p3500
V\u7a0b\u63a7\u4ea4\u6362\u673a
p3501
sVdbcode
p3502
Vhgyd
p3503
sVpid
p3504
VA0208
p3505
sVisParent
p3506
I00
sVwdcode
p3507
Vzb
p3508
sVid
p3509
VA02081M
p3510
sa(dp3511
Vname
p3512
V\u4f20\u771f\u673a
p3513
sVdbcode
p3514
Vhgyd
p3515
sVpid
p3516
VA0208
p3517
sVisParent
p3518
I00
sVwdcode
p3519
Vzb
p3520
sVid
p3521
VA02081N
p3522
sa(dp3523
Vname
p3524
V\u79fb\u52a8\u901a\u4fe1\u57fa\u7ad9\u8bbe\u5907
p3525
sVdbcode
p3526
Vhgyd
p3527
sVpid
p3528
VA0208
p3529
sVisParent
p3530
I00
sVwdcode
p3531
Vzb
p3532
sVid
p3533
VA02081O
p3534
sa(dp3535
Vname
p3536
V\u79fb\u52a8\u901a\u4fe1\u624b\u6301\u673a
p3537
sVdbcode
p3538
Vhgyd
p3539
sVpid
p3540
VA0208
p3541
sVisParent
p3542
I00
sVwdcode
p3543
Vzb
p3544
sVid
p3545
VA02081P
p3546
sa(dp3547
Vname
p3548
V\u7535\u5b50\u8ba1\u7b97\u673a\u6574\u673a
p3549
sVdbcode
p3550
Vhgyd
p3551
sVpid
p3552
VA0208
p3553
sVisParent
p3554
I00
sVwdcode
p3555
Vzb
p3556
sVid
p3557
VA02081Q
p3558
sa(dp3559
Vname
p3560
V\u5fae\u578b\u8ba1\u7b97\u673a\u8bbe\u5907
p3561
sVdbcode
p3562
Vhgyd
p3563
sVpid
p3564
VA0208
p3565
sVisParent
p3566
I00
sVwdcode
p3567
Vzb
p3568
sVid
p3569
VA02081R
p3570
sa(dp3571
Vname
p3572
V\u96c6\u6210\u7535\u8def
p3573
sVdbcode
p3574
Vhgyd
p3575
sVpid
p3576
VA0208
p3577
sVisParent
p3578
I00
sVwdcode
p3579
Vzb
p3580
sVid
p3581
VA02081S
p3582
sa(dp3583
Vname
p3584
V\u5f69\u8272\u7535\u89c6\u673a
p3585
sVdbcode
p3586
Vhgyd
p3587
sVpid
p3588
VA0208
p3589
sVisParent
p3590
I00
sVwdcode
p3591
Vzb
p3592
sVid
p3593
VA02081T
p3594
sa(dp3595
Vname
p3596
V\u7535\u5de5\u4eea\u5668\u4eea\u8868
p3597
sVdbcode
p3598
Vhgyd
p3599
sVpid
p3600
VA0208
p3601
sVisParent
p3602
I00
sVwdcode
p3603
Vzb
p3604
sVid
p3605
VA02081U
p3606
sa(dp3607
Vname
p3608
V\u8f7d\u6ce2\u901a\u4fe1\u8bbe\u5907
p3609
sVdbcode
p3610
Vhgyd
p3611
sVpid
p3612
VA0208
p3613
sVisParent
p3614
I00
sVwdcode
p3615
Vzb
p3616
sVid
p3617
VA02081W
p3618
sa(dp3619
Vname
p3620
V\u5149\u901a\u4fe1\u8bbe\u5907
p3621
sVdbcode
p3622
Vhgyd
p3623
sVpid
p3624
VA0208
p3625
sVisParent
p3626
I00
sVwdcode
p3627
Vzb
p3628
sVid
p3629
VA02081X
p3630
sa(dp3631
Vname
p3632
V\u5927\u89c4\u6a21\u96c6\u6210\u7535\u8def
p3633
sVdbcode
p3634
Vhgyd
p3635
sVpid
p3636
VA0208
p3637
sVisParent
p3638
I00
sVwdcode
p3639
Vzb
p3640
sVid
p3641
VA02081Y
p3642
sa(dp3643
Vname
p3644
V\u590d\u5370\u548c\u80f6\u7248\u5370\u5236\u8bbe\u5907
p3645
sVdbcode
p3646
Vhgyd
p3647
sVpid
p3648
VA0208
p3649
sVisParent
p3650
I00
sVwdcode
p3651
Vzb
p3652
sVid
p3653
VA02081Z
p3654
sa(dp3655
Vname
p3656
V\u53d1\u7535\u91cf
p3657
sVdbcode
p3658
Vhgyd
p3659
sVpid
p3660
VA0208
p3661
sVisParent
p3662
I00
sVwdcode
p3663
Vzb
p3664
sVid
p3665
VA020820
p3666
sa(dp3667
Vname
p3668
V\u706b\u529b\u53d1\u7535\u91cf
p3669
sVdbcode
p3670
Vhgyd
p3671
sVpid
p3672
VA0208
p3673
sVisParent
p3674
I00
sVwdcode
p3675
Vzb
p3676
sVid
p3677
VA020821
p3678
sa(dp3679
Vname
p3680
V\u6c34\u529b\u53d1\u7535\u91cf
p3681
sVdbcode
p3682
Vhgyd
p3683
sVpid
p3684
VA0208
p3685
sVisParent
p3686
I00
sVwdcode
p3687
Vzb
p3688
sVid
p3689
VA020822
p3690
sasg137
(lp3691
g0
(g1
g2
Ntp3692
Rp3693
(dp3694
g6
I01
sg7
g2817
sg9
g10
sg11
g2826
sg12
Nsg13
(lp3695
sg137
(lp3696
sbag0
(g1
g2
Ntp3697
Rp3698
(dp3699
g6
I01
sg7
g2829
sg9
g10
sg11
g2838
sg12
Nsg13
(lp3700
sg137
(lp3701
sbag0
(g1
g2
Ntp3702
Rp3703
(dp3704
g6
I01
sg7
g2841
sg9
g10
sg11
g2850
sg12
Nsg13
(lp3705
sg137
(lp3706
sbag0
(g1
g2
Ntp3707
Rp3708
(dp3709
g6
I01
sg7
g2853
sg9
g10
sg11
g2862
sg12
Nsg13
(lp3710
sg137
(lp3711
sbag0
(g1
g2
Ntp3712
Rp3713
(dp3714
g6
I01
sg7
g2865
sg9
g10
sg11
g2874
sg12
Nsg13
(lp3715
sg137
(lp3716
sbag0
(g1
g2
Ntp3717
Rp3718
(dp3719
g6
I01
sg7
g2877
sg9
g10
sg11
g2886
sg12
Nsg13
(lp3720
sg137
(lp3721
sbag0
(g1
g2
Ntp3722
Rp3723
(dp3724
g6
I01
sg7
g2889
sg9
g10
sg11
g2898
sg12
Nsg13
(lp3725
sg137
(lp3726
sbag0
(g1
g2
Ntp3727
Rp3728
(dp3729
g6
I01
sg7
g2901
sg9
g10
sg11
g2910
sg12
Nsg13
(lp3730
sg137
(lp3731
sbag0
(g1
g2
Ntp3732
Rp3733
(dp3734
g6
I01
sg7
g2913
sg9
g10
sg11
g2922
sg12
Nsg13
(lp3735
sg137
(lp3736
sbag0
(g1
g2
Ntp3737
Rp3738
(dp3739
g6
I01
sg7
g2925
sg9
g10
sg11
g2934
sg12
Nsg13
(lp3740
sg137
(lp3741
sbag0
(g1
g2
Ntp3742
Rp3743
(dp3744
g6
I01
sg7
g2937
sg9
g10
sg11
g2946
sg12
Nsg13
(lp3745
sg137
(lp3746
sbag0
(g1
g2
Ntp3747
Rp3748
(dp3749
g6
I01
sg7
g2949
sg9
g10
sg11
g2958
sg12
Nsg13
(lp3750
sg137
(lp3751
sbag0
(g1
g2
Ntp3752
Rp3753
(dp3754
g6
I01
sg7
g2961
sg9
g10
sg11
g2970
sg12
Nsg13
(lp3755
sg137
(lp3756
sbag0
(g1
g2
Ntp3757
Rp3758
(dp3759
g6
I01
sg7
g2973
sg9
g10
sg11
g2982
sg12
Nsg13
(lp3760
sg137
(lp3761
sbag0
(g1
g2
Ntp3762
Rp3763
(dp3764
g6
I01
sg7
g2985
sg9
g10
sg11
g2994
sg12
Nsg13
(lp3765
sg137
(lp3766
sbag0
(g1
g2
Ntp3767
Rp3768
(dp3769
g6
I01
sg7
g2997
sg9
g10
sg11
g3006
sg12
Nsg13
(lp3770
sg137
(lp3771
sbag0
(g1
g2
Ntp3772
Rp3773
(dp3774
g6
I01
sg7
g3009
sg9
g10
sg11
g3018
sg12
Nsg13
(lp3775
sg137
(lp3776
sbag0
(g1
g2
Ntp3777
Rp3778
(dp3779
g6
I01
sg7
g3021
sg9
g10
sg11
g3030
sg12
Nsg13
(lp3780
sg137
(lp3781
sbag0
(g1
g2
Ntp3782
Rp3783
(dp3784
g6
I01
sg7
g3033
sg9
g10
sg11
g3042
sg12
Nsg13
(lp3785
sg137
(lp3786
sbag0
(g1
g2
Ntp3787
Rp3788
(dp3789
g6
I01
sg7
g3045
sg9
g10
sg11
g3054
sg12
Nsg13
(lp3790
sg137
(lp3791
sbag0
(g1
g2
Ntp3792
Rp3793
(dp3794
g6
I01
sg7
g3057
sg9
g10
sg11
g3066
sg12
Nsg13
(lp3795
sg137
(lp3796
sbag0
(g1
g2
Ntp3797
Rp3798
(dp3799
g6
I01
sg7
g3069
sg9
g10
sg11
g3078
sg12
Nsg13
(lp3800
sg137
(lp3801
sbag0
(g1
g2
Ntp3802
Rp3803
(dp3804
g6
I01
sg7
g3081
sg9
g10
sg11
g3090
sg12
Nsg13
(lp3805
sg137
(lp3806
sbag0
(g1
g2
Ntp3807
Rp3808
(dp3809
g6
I01
sg7
g3093
sg9
g10
sg11
g3102
sg12
Nsg13
(lp3810
sg137
(lp3811
sbag0
(g1
g2
Ntp3812
Rp3813
(dp3814
g6
I01
sg7
g3105
sg9
g10
sg11
g3114
sg12
Nsg13
(lp3815
sg137
(lp3816
sbag0
(g1
g2
Ntp3817
Rp3818
(dp3819
g6
I01
sg7
g3117
sg9
g10
sg11
g3126
sg12
Nsg13
(lp3820
sg137
(lp3821
sbag0
(g1
g2
Ntp3822
Rp3823
(dp3824
g6
I01
sg7
g3129
sg9
g10
sg11
g3138
sg12
Nsg13
(lp3825
sg137
(lp3826
sbag0
(g1
g2
Ntp3827
Rp3828
(dp3829
g6
I01
sg7
g3141
sg9
g10
sg11
g3150
sg12
Nsg13
(lp3830
sg137
(lp3831
sbag0
(g1
g2
Ntp3832
Rp3833
(dp3834
g6
I01
sg7
g3153
sg9
g10
sg11
g3162
sg12
Nsg13
(lp3835
sg137
(lp3836
sbag0
(g1
g2
Ntp3837
Rp3838
(dp3839
g6
I01
sg7
g3165
sg9
g10
sg11
g3174
sg12
Nsg13
(lp3840
sg137
(lp3841
sbag0
(g1
g2
Ntp3842
Rp3843
(dp3844
g6
I01
sg7
g3177
sg9
g10
sg11
g3186
sg12
Nsg13
(lp3845
sg137
(lp3846
sbag0
(g1
g2
Ntp3847
Rp3848
(dp3849
g6
I01
sg7
g3189
sg9
g10
sg11
g3198
sg12
Nsg13
(lp3850
sg137
(lp3851
sbag0
(g1
g2
Ntp3852
Rp3853
(dp3854
g6
I01
sg7
g3201
sg9
g10
sg11
g3210
sg12
Nsg13
(lp3855
sg137
(lp3856
sbag0
(g1
g2
Ntp3857
Rp3858
(dp3859
g6
I01
sg7
g3213
sg9
g10
sg11
g3222
sg12
Nsg13
(lp3860
sg137
(lp3861
sbag0
(g1
g2
Ntp3862
Rp3863
(dp3864
g6
I01
sg7
g3225
sg9
g10
sg11
g3234
sg12
Nsg13
(lp3865
sg137
(lp3866
sbag0
(g1
g2
Ntp3867
Rp3868
(dp3869
g6
I01
sg7
g3237
sg9
g10
sg11
g3246
sg12
Nsg13
(lp3870
sg137
(lp3871
sbag0
(g1
g2
Ntp3872
Rp3873
(dp3874
g6
I01
sg7
g3249
sg9
g10
sg11
g3258
sg12
Nsg13
(lp3875
sg137
(lp3876
sbag0
(g1
g2
Ntp3877
Rp3878
(dp3879
g6
I01
sg7
g3261
sg9
g10
sg11
g3270
sg12
Nsg13
(lp3880
sg137
(lp3881
sbag0
(g1
g2
Ntp3882
Rp3883
(dp3884
g6
I01
sg7
g3273
sg9
g10
sg11
g3282
sg12
Nsg13
(lp3885
sg137
(lp3886
sbag0
(g1
g2
Ntp3887
Rp3888
(dp3889
g6
I01
sg7
g3285
sg9
g10
sg11
g3294
sg12
Nsg13
(lp3890
sg137
(lp3891
sbag0
(g1
g2
Ntp3892
Rp3893
(dp3894
g6
I01
sg7
g3297
sg9
g10
sg11
g3306
sg12
Nsg13
(lp3895
sg137
(lp3896
sbag0
(g1
g2
Ntp3897
Rp3898
(dp3899
g6
I01
sg7
g3309
sg9
g10
sg11
g3318
sg12
Nsg13
(lp3900
sg137
(lp3901
sbag0
(g1
g2
Ntp3902
Rp3903
(dp3904
g6
I01
sg7
g3321
sg9
g10
sg11
g3330
sg12
Nsg13
(lp3905
sg137
(lp3906
sbag0
(g1
g2
Ntp3907
Rp3908
(dp3909
g6
I01
sg7
g3333
sg9
g10
sg11
g3342
sg12
Nsg13
(lp3910
sg137
(lp3911
sbag0
(g1
g2
Ntp3912
Rp3913
(dp3914
g6
I01
sg7
g3345
sg9
g10
sg11
g3354
sg12
Nsg13
(lp3915
sg137
(lp3916
sbag0
(g1
g2
Ntp3917
Rp3918
(dp3919
g6
I01
sg7
g3357
sg9
g10
sg11
g3366
sg12
Nsg13
(lp3920
sg137
(lp3921
sbag0
(g1
g2
Ntp3922
Rp3923
(dp3924
g6
I01
sg7
g3369
sg9
g10
sg11
g3378
sg12
Nsg13
(lp3925
sg137
(lp3926
sbag0
(g1
g2
Ntp3927
Rp3928
(dp3929
g6
I01
sg7
g3381
sg9
g10
sg11
g3390
sg12
Nsg13
(lp3930
sg137
(lp3931
sbag0
(g1
g2
Ntp3932
Rp3933
(dp3934
g6
I01
sg7
g3393
sg9
g10
sg11
g3402
sg12
Nsg13
(lp3935
sg137
(lp3936
sbag0
(g1
g2
Ntp3937
Rp3938
(dp3939
g6
I01
sg7
g3405
sg9
g10
sg11
g3414
sg12
Nsg13
(lp3940
sg137
(lp3941
sbag0
(g1
g2
Ntp3942
Rp3943
(dp3944
g6
I01
sg7
g3417
sg9
g10
sg11
g3426
sg12
Nsg13
(lp3945
sg137
(lp3946
sbag0
(g1
g2
Ntp3947
Rp3948
(dp3949
g6
I01
sg7
g3429
sg9
g10
sg11
g3438
sg12
Nsg13
(lp3950
sg137
(lp3951
sbag0
(g1
g2
Ntp3952
Rp3953
(dp3954
g6
I01
sg7
g3441
sg9
g10
sg11
g3450
sg12
Nsg13
(lp3955
sg137
(lp3956
sbag0
(g1
g2
Ntp3957
Rp3958
(dp3959
g6
I01
sg7
g3453
sg9
g10
sg11
g3462
sg12
Nsg13
(lp3960
sg137
(lp3961
sbag0
(g1
g2
Ntp3962
Rp3963
(dp3964
g6
I01
sg7
g3465
sg9
g10
sg11
g3474
sg12
Nsg13
(lp3965
sg137
(lp3966
sbag0
(g1
g2
Ntp3967
Rp3968
(dp3969
g6
I01
sg7
g3477
sg9
g10
sg11
g3486
sg12
Nsg13
(lp3970
sg137
(lp3971
sbag0
(g1
g2
Ntp3972
Rp3973
(dp3974
g6
I01
sg7
g3489
sg9
g10
sg11
g3498
sg12
Nsg13
(lp3975
sg137
(lp3976
sbag0
(g1
g2
Ntp3977
Rp3978
(dp3979
g6
I01
sg7
g3501
sg9
g10
sg11
g3510
sg12
Nsg13
(lp3980
sg137
(lp3981
sbag0
(g1
g2
Ntp3982
Rp3983
(dp3984
g6
I01
sg7
g3513
sg9
g10
sg11
g3522
sg12
Nsg13
(lp3985
sg137
(lp3986
sbag0
(g1
g2
Ntp3987
Rp3988
(dp3989
g6
I01
sg7
g3525
sg9
g10
sg11
g3534
sg12
Nsg13
(lp3990
sg137
(lp3991
sbag0
(g1
g2
Ntp3992
Rp3993
(dp3994
g6
I01
sg7
g3537
sg9
g10
sg11
g3546
sg12
Nsg13
(lp3995
sg137
(lp3996
sbag0
(g1
g2
Ntp3997
Rp3998
(dp3999
g6
I01
sg7
g3549
sg9
g10
sg11
g3558
sg12
Nsg13
(lp4000
sg137
(lp4001
sbag0
(g1
g2
Ntp4002
Rp4003
(dp4004
g6
I01
sg7
g3561
sg9
g10
sg11
g3570
sg12
Nsg13
(lp4005
sg137
(lp4006
sbag0
(g1
g2
Ntp4007
Rp4008
(dp4009
g6
I01
sg7
g3573
sg9
g10
sg11
g3582
sg12
Nsg13
(lp4010
sg137
(lp4011
sbag0
(g1
g2
Ntp4012
Rp4013
(dp4014
g6
I01
sg7
g3585
sg9
g10
sg11
g3594
sg12
Nsg13
(lp4015
sg137
(lp4016
sbag0
(g1
g2
Ntp4017
Rp4018
(dp4019
g6
I01
sg7
g3597
sg9
g10
sg11
g3606
sg12
Nsg13
(lp4020
sg137
(lp4021
sbag0
(g1
g2
Ntp4022
Rp4023
(dp4024
g6
I01
sg7
g3609
sg9
g10
sg11
g3618
sg12
Nsg13
(lp4025
sg137
(lp4026
sbag0
(g1
g2
Ntp4027
Rp4028
(dp4029
g6
I01
sg7
g3621
sg9
g10
sg11
g3630
sg12
Nsg13
(lp4030
sg137
(lp4031
sbag0
(g1
g2
Ntp4032
Rp4033
(dp4034
g6
I01
sg7
g3633
sg9
g10
sg11
g3642
sg12
Nsg13
(lp4035
sg137
(lp4036
sbag0
(g1
g2
Ntp4037
Rp4038
(dp4039
g6
I01
sg7
g3645
sg9
g10
sg11
g3654
sg12
Nsg13
(lp4040
sg137
(lp4041
sbag0
(g1
g2
Ntp4042
Rp4043
(dp4044
g6
I01
sg7
g3657
sg9
g10
sg11
g3666
sg12
Nsg13
(lp4045
sg137
(lp4046
sbag0
(g1
g2
Ntp4047
Rp4048
(dp4049
g6
I01
sg7
g3669
sg9
g10
sg11
g3678
sg12
Nsg13
(lp4050
sg137
(lp4051
sbag0
(g1
g2
Ntp4052
Rp4053
(dp4054
g6
I01
sg7
g3681
sg9
g10
sg11
g3690
sg12
Nsg13
(lp4055
sg137
(lp4056
sbasbag0
(g1
g2
Ntp4057
Rp4058
(dp4059
g6
I01
sg7
g1220
sg9
g10
sg11
g1229
sg12
Nsg13
(lp4060
sg137
(lp4061
sbag0
(g1
g2
Ntp4062
Rp4063
(dp4064
g6
I01
sg7
g1232
sg9
g10
sg11
g1241
sg12
Nsg13
(lp4065
sg137
(lp4066
sbag0
(g1
g2
Ntp4067
Rp4068
(dp4069
g6
I01
sg7
g1244
sg9
g10
sg11
g1253
sg12
Nsg13
(lp4070
sg137
(lp4071
sbag0
(g1
g2
Ntp4072
Rp4073
(dp4074
g6
I01
sg7
g1256
sg9
g10
sg11
g1265
sg12
Nsg13
(lp4075
sg137
(lp4076
sbag0
(g1
g2
Ntp4077
Rp4078
(dp4079
g6
I01
sg7
g1268
sg9
g10
sg11
g1277
sg12
Nsg13
(lp4080
sg137
(lp4081
sbag0
(g1
g2
Ntp4082
Rp4083
(dp4084
g6
I01
sg7
g1280
sg9
g10
sg11
g1289
sg12
Nsg13
(lp4085
sg137
(lp4086
sbag0
(g1
g2
Ntp4087
Rp4088
(dp4089
g6
I01
sg7
g1292
sg9
g10
sg11
g1301
sg12
Nsg13
(lp4090
sg137
(lp4091
sbag0
(g1
g2
Ntp4092
Rp4093
(dp4094
g6
I01
sg7
g1304
sg9
g10
sg11
g1313
sg12
Nsg13
(lp4095
sg137
(lp4096
sbag0
(g1
g2
Ntp4097
Rp4098
(dp4099
g6
I01
sg7
g1316
sg9
g10
sg11
g1325
sg12
Nsg13
(lp4100
sg137
(lp4101
sbag0
(g1
g2
Ntp4102
Rp4103
(dp4104
g6
I01
sg7
g1328
sg9
g10
sg11
g1337
sg12
Nsg13
(lp4105
sg137
(lp4106
sbag0
(g1
g2
Ntp4107
Rp4108
(dp4109
g6
I01
sg7
g1340
sg9
g10
sg11
g1349
sg12
Nsg13
(lp4110
sg137
(lp4111
sbag0
(g1
g2
Ntp4112
Rp4113
(dp4114
g6
I00
sg7
g1352
sg9
g10
sg11
g1361
sg12
Nsg13
(lp4115
(dp4116
Vname
p4117
V\u5de5\u4e1a\u4f01\u4e1a\u5355\u4f4d\u6570
p4118
sVdbcode
p4119
Vhgyd
p4120
sVpid
p4121
VA020K
p4122
sVisParent
p4123
I00
sVwdcode
p4124
Vzb
p4125
sVid
p4126
VA020K01
p4127
sa(dp4128
Vname
p4129
V\u5de5\u4e1a\u4e8f\u635f\u4f01\u4e1a\u5355\u4f4d\u6570
p4130
sVdbcode
p4131
Vhgyd
p4132
sVpid
p4133
VA020K
p4134
sVisParent
p4135
I00
sVwdcode
p4136
Vzb
p4137
sVid
p4138
VA020K02
p4139
sa(dp4140
Vname
p4141
V\u5de5\u4e1a\u4f01\u4e1a\u6d41\u52a8\u8d44\u4ea7\u5e73\u5747\u4f59\u989d
p4142
sVdbcode
p4143
Vhgyd
p4144
sVpid
p4145
VA020K
p4146
sVisParent
p4147
I00
sVwdcode
p4148
Vzb
p4149
sVid
p4150
VA020K03
p4151
sa(dp4152
Vname
p4153
V\u5de5\u4e1a\u4f01\u4e1a\u5e94\u6536\u5e10\u6b3e
p4154
sVdbcode
p4155
Vhgyd
p4156
sVpid
p4157
VA020K
p4158
sVisParent
p4159
I00
sVwdcode
p4160
Vzb
p4161
sVid
p4162
VA020K04
p4163
sa(dp4164
Vname
p4165
V\u5de5\u4e1a\u4f01\u4e1a\u4ea7\u6210\u54c1\u5b58\u8d27
p4166
sVdbcode
p4167
Vhgyd
p4168
sVpid
p4169
VA020K
p4170
sVisParent
p4171
I00
sVwdcode
p4172
Vzb
p4173
sVid
p4174
VA020K05
p4175
sa(dp4176
Vname
p4177
V\u5de5\u4e1a\u4f01\u4e1a\u8d44\u4ea7\u603b\u8ba1
p4178
sVdbcode
p4179
Vhgyd
p4180
sVpid
p4181
VA020K
p4182
sVisParent
p4183
I00
sVwdcode
p4184
Vzb
p4185
sVid
p4186
VA020K06
p4187
sa(dp4188
Vname
p4189
V\u5de5\u4e1a\u4f01\u4e1a\u8d1f\u503a\u5408\u8ba1
p4190
sVdbcode
p4191
Vhgyd
p4192
sVpid
p4193
VA020K
p4194
sVisParent
p4195
I00
sVwdcode
p4196
Vzb
p4197
sVid
p4198
VA020K07
p4199
sa(dp4200
Vname
p4201
V\u5de5\u4e1a\u4f01\u4e1a\u4e3b\u8425\u4e1a\u52a1\u6536\u5165
p4202
sVdbcode
p4203
Vhgyd
p4204
sVpid
p4205
VA020K
p4206
sVisParent
p4207
I00
sVwdcode
p4208
Vzb
p4209
sVid
p4210
VA020K08
p4211
sa(dp4212
Vname
p4213
V\u5de5\u4e1a\u4f01\u4e1a\u4e3b\u8425\u4e1a\u52a1\u6210\u672c
p4214
sVdbcode
p4215
Vhgyd
p4216
sVpid
p4217
VA020K
p4218
sVisParent
p4219
I00
sVwdcode
p4220
Vzb
p4221
sVid
p4222
VA020K09
p4223
sa(dp4224
Vname
p4225
V\u5de5\u4e1a\u4f01\u4e1a\u4e3b\u8425\u4e1a\u52a1\u7a0e\u91d1\u53ca\u9644\u52a0
p4226
sVdbcode
p4227
Vhgyd
p4228
sVpid
p4229
VA020K
p4230
sVisParent
p4231
I00
sVwdcode
p4232
Vzb
p4233
sVid
p4234
VA020K0A
p4235
sa(dp4236
Vname
p4237
V\u5de5\u4e1a\u4f01\u4e1a\u8425\u4e1a\u8d39\u7528
p4238
sVdbcode
p4239
Vhgyd
p4240
sVpid
p4241
VA020K
p4242
sVisParent
p4243
I00
sVwdcode
p4244
Vzb
p4245
sVid
p4246
VA020K0B
p4247
sa(dp4248
Vname
p4249
V\u5de5\u4e1a\u4f01\u4e1a\u7ba1\u7406\u8d39\u7528
p4250
sVdbcode
p4251
Vhgyd
p4252
sVpid
p4253
VA020K
p4254
sVisParent
p4255
I00
sVwdcode
p4256
Vzb
p4257
sVid
p4258
VA020K0C
p4259
sa(dp4260
Vname
p4261
V\u5de5\u4e1a\u4f01\u4e1a\u8d22\u52a1\u8d39\u7528
p4262
sVdbcode
p4263
Vhgyd
p4264
sVpid
p4265
VA020K
p4266
sVisParent
p4267
I00
sVwdcode
p4268
Vzb
p4269
sVid
p4270
VA020K0D
p4271
sa(dp4272
Vname
p4273
V\u5de5\u4e1a\u4f01\u4e1a\u5229\u606f\u51c0\u652f\u51fa
p4274
sVdbcode
p4275
Vhgyd
p4276
sVpid
p4277
VA020K
p4278
sVisParent
p4279
I00
sVwdcode
p4280
Vzb
p4281
sVid
p4282
VA020K0E
p4283
sa(dp4284
Vname
p4285
V\u5de5\u4e1a\u4f01\u4e1a\u5229\u6da6\u603b\u989d
p4286
sVdbcode
p4287
Vhgyd
p4288
sVpid
p4289
VA020K
p4290
sVisParent
p4291
I00
sVwdcode
p4292
Vzb
p4293
sVid
p4294
VA020K0F
p4295
sa(dp4296
Vname
p4297
V\u5de5\u4e1a\u4e8f\u635f\u4f01\u4e1a\u4e8f\u635f\u603b\u989d
p4298
sVdbcode
p4299
Vhgyd
p4300
sVpid
p4301
VA020K
p4302
sVisParent
p4303
I00
sVwdcode
p4304
Vzb
p4305
sVid
p4306
VA020K0G
p4307
sa(dp4308
Vname
p4309
V\u5de5\u4e1a\u4f01\u4e1a\u5e94\u4ea4\u589e\u503c\u7a0e
p4310
sVdbcode
p4311
Vhgyd
p4312
sVpid
p4313
VA020K
p4314
sVisParent
p4315
I00
sVwdcode
p4316
Vzb
p4317
sVid
p4318
VA020K0H
p4319
sasg137
(lp4320
g0
(g1
g2
Ntp4321
Rp4322
(dp4323
g6
I01
sg7
g4118
sg9
g10
sg11
g4127
sg12
Nsg13
(lp4324
sg137
(lp4325
sbag0
(g1
g2
Ntp4326
Rp4327
(dp4328
g6
I01
sg7
g4130
sg9
g10
sg11
g4139
sg12
Nsg13
(lp4329
sg137
(lp4330
sbag0
(g1
g2
Ntp4331
Rp4332
(dp4333
g6
I01
sg7
g4142
sg9
g10
sg11
g4151
sg12
Nsg13
(lp4334
sg137
(lp4335
sbag0
(g1
g2
Ntp4336
Rp4337
(dp4338
g6
I01
sg7
g4154
sg9
g10
sg11
g4163
sg12
Nsg13
(lp4339
sg137
(lp4340
sbag0
(g1
g2
Ntp4341
Rp4342
(dp4343
g6
I01
sg7
g4166
sg9
g10
sg11
g4175
sg12
Nsg13
(lp4344
sg137
(lp4345
sbag0
(g1
g2
Ntp4346
Rp4347
(dp4348
g6
I01
sg7
g4178
sg9
g10
sg11
g4187
sg12
Nsg13
(lp4349
sg137
(lp4350
sbag0
(g1
g2
Ntp4351
Rp4352
(dp4353
g6
I01
sg7
g4190
sg9
g10
sg11
g4199
sg12
Nsg13
(lp4354
sg137
(lp4355
sbag0
(g1
g2
Ntp4356
Rp4357
(dp4358
g6
I01
sg7
g4202
sg9
g10
sg11
g4211
sg12
Nsg13
(lp4359
sg137
(lp4360
sbag0
(g1
g2
Ntp4361
Rp4362
(dp4363
g6
I01
sg7
g4214
sg9
g10
sg11
g4223
sg12
Nsg13
(lp4364
sg137
(lp4365
sbag0
(g1
g2
Ntp4366
Rp4367
(dp4368
g6
I01
sg7
g4226
sg9
g10
sg11
g4235
sg12
Nsg13
(lp4369
sg137
(lp4370
sbag0
(g1
g2
Ntp4371
Rp4372
(dp4373
g6
I01
sg7
g4238
sg9
g10
sg11
g4247
sg12
Nsg13
(lp4374
sg137
(lp4375
sbag0
(g1
g2
Ntp4376
Rp4377
(dp4378
g6
I01
sg7
g4250
sg9
g10
sg11
g4259
sg12
Nsg13
(lp4379
sg137
(lp4380
sbag0
(g1
g2
Ntp4381
Rp4382
(dp4383
g6
I01
sg7
g4262
sg9
g10
sg11
g4271
sg12
Nsg13
(lp4384
sg137
(lp4385
sbag0
(g1
g2
Ntp4386
Rp4387
(dp4388
g6
I01
sg7
g4274
sg9
g10
sg11
g4283
sg12
Nsg13
(lp4389
sg137
(lp4390
sbag0
(g1
g2
Ntp4391
Rp4392
(dp4393
g6
I01
sg7
g4286
sg9
g10
sg11
g4295
sg12
Nsg13
(lp4394
sg137
(lp4395
sbag0
(g1
g2
Ntp4396
Rp4397
(dp4398
g6
I01
sg7
g4298
sg9
g10
sg11
g4307
sg12
Nsg13
(lp4399
sg137
(lp4400
sbag0
(g1
g2
Ntp4401
Rp4402
(dp4403
g6
I01
sg7
g4310
sg9
g10
sg11
g4319
sg12
Nsg13
(lp4404
sg137
(lp4405
sbasbag0
(g1
g2
Ntp4406
Rp4407
(dp4408
g6
I00
sg7
g1364
sg9
g10
sg11
g1373
sg12
Nsg13
(lp4409
(dp4410
Vname
p4411
V\u5de5\u4e1a\u4f01\u4e1a\u5355\u4f4d\u6570
p4412
sVdbcode
p4413
Vhgyd
p4414
sVpid
p4415
VA020L
p4416
sVisParent
p4417
I00
sVwdcode
p4418
Vzb
p4419
sVid
p4420
VA020L01
p4421
sa(dp4422
Vname
p4423
V\u5de5\u4e1a\u4e8f\u635f\u4f01\u4e1a\u5355\u4f4d\u6570
p4424
sVdbcode
p4425
Vhgyd
p4426
sVpid
p4427
VA020L
p4428
sVisParent
p4429
I00
sVwdcode
p4430
Vzb
p4431
sVid
p4432
VA020L02
p4433
sa(dp4434
Vname
p4435
V\u5de5\u4e1a\u4f01\u4e1a\u6d41\u52a8\u8d44\u4ea7\u5e73\u5747\u4f59\u989d
p4436
sVdbcode
p4437
Vhgyd
p4438
sVpid
p4439
VA020L
p4440
sVisParent
p4441
I00
sVwdcode
p4442
Vzb
p4443
sVid
p4444
VA020L03
p4445
sa(dp4446
Vname
p4447
V\u5de5\u4e1a\u4f01\u4e1a\u5e94\u6536\u5e10\u6b3e
p4448
sVdbcode
p4449
Vhgyd
p4450
sVpid
p4451
VA020L
p4452
sVisParent
p4453
I00
sVwdcode
p4454
Vzb
p4455
sVid
p4456
VA020L04
p4457
sa(dp4458
Vname
p4459
V\u5de5\u4e1a\u4f01\u4e1a\u4ea7\u6210\u54c1\u5b58\u8d27
p4460
sVdbcode
p4461
Vhgyd
p4462
sVpid
p4463
VA020L
p4464
sVisParent
p4465
I00
sVwdcode
p4466
Vzb
p4467
sVid
p4468
VA020L05
p4469
sa(dp4470
Vname
p4471
V\u5de5\u4e1a\u4f01\u4e1a\u8d44\u4ea7\u603b\u8ba1
p4472
sVdbcode
p4473
Vhgyd
p4474
sVpid
p4475
VA020L
p4476
sVisParent
p4477
I00
sVwdcode
p4478
Vzb
p4479
sVid
p4480
VA020L06
p4481
sa(dp4482
Vname
p4483
V\u5de5\u4e1a\u4f01\u4e1a\u8d1f\u503a\u5408\u8ba1
p4484
sVdbcode
p4485
Vhgyd
p4486
sVpid
p4487
VA020L
p4488
sVisParent
p4489
I00
sVwdcode
p4490
Vzb
p4491
sVid
p4492
VA020L07
p4493
sa(dp4494
Vname
p4495
V\u5de5\u4e1a\u4f01\u4e1a\u4e3b\u8425\u4e1a\u52a1\u6536\u5165
p4496
sVdbcode
p4497
Vhgyd
p4498
sVpid
p4499
VA020L
p4500
sVisParent
p4501
I00
sVwdcode
p4502
Vzb
p4503
sVid
p4504
VA020L08
p4505
sa(dp4506
Vname
p4507
V\u5de5\u4e1a\u4f01\u4e1a\u4e3b\u8425\u4e1a\u52a1\u6210\u672c
p4508
sVdbcode
p4509
Vhgyd
p4510
sVpid
p4511
VA020L
p4512
sVisParent
p4513
I00
sVwdcode
p4514
Vzb
p4515
sVid
p4516
VA020L09
p4517
sa(dp4518
Vname
p4519
V\u5de5\u4e1a\u4f01\u4e1a\u4e3b\u8425\u4e1a\u52a1\u7a0e\u91d1\u53ca\u9644\u52a0
p4520
sVdbcode
p4521
Vhgyd
p4522
sVpid
p4523
VA020L
p4524
sVisParent
p4525
I00
sVwdcode
p4526
Vzb
p4527
sVid
p4528
VA020L0A
p4529
sa(dp4530
Vname
p4531
V\u5de5\u4e1a\u4f01\u4e1a\u8425\u4e1a\u8d39\u7528
p4532
sVdbcode
p4533
Vhgyd
p4534
sVpid
p4535
VA020L
p4536
sVisParent
p4537
I00
sVwdcode
p4538
Vzb
p4539
sVid
p4540
VA020L0B
p4541
sa(dp4542
Vname
p4543
V\u5de5\u4e1a\u4f01\u4e1a\u7ba1\u7406\u8d39\u7528
p4544
sVdbcode
p4545
Vhgyd
p4546
sVpid
p4547
VA020L
p4548
sVisParent
p4549
I00
sVwdcode
p4550
Vzb
p4551
sVid
p4552
VA020L0C
p4553
sa(dp4554
Vname
p4555
V\u5de5\u4e1a\u4f01\u4e1a\u8d22\u52a1\u8d39\u7528
p4556
sVdbcode
p4557
Vhgyd
p4558
sVpid
p4559
VA020L
p4560
sVisParent
p4561
I00
sVwdcode
p4562
Vzb
p4563
sVid
p4564
VA020L0D
p4565
sa(dp4566
Vname
p4567
V\u5de5\u4e1a\u4f01\u4e1a\u5229\u606f\u51c0\u652f\u51fa
p4568
sVdbcode
p4569
Vhgyd
p4570
sVpid
p4571
VA020L
p4572
sVisParent
p4573
I00
sVwdcode
p4574
Vzb
p4575
sVid
p4576
VA020L0E
p4577
sa(dp4578
Vname
p4579
V\u5de5\u4e1a\u4f01\u4e1a\u5229\u6da6\u603b\u989d
p4580
sVdbcode
p4581
Vhgyd
p4582
sVpid
p4583
VA020L
p4584
sVisParent
p4585
I00
sVwdcode
p4586
Vzb
p4587
sVid
p4588
VA020L0F
p4589
sa(dp4590
Vname
p4591
V\u5de5\u4e1a\u4f01\u4e1a\u4e8f\u635f\u4f01\u4e1a\u4e8f\u635f\u603b\u989d
p4592
sVdbcode
p4593
Vhgyd
p4594
sVpid
p4595
VA020L
p4596
sVisParent
p4597
I00
sVwdcode
p4598
Vzb
p4599
sVid
p4600
VA020L0G
p4601
sa(dp4602
Vname
p4603
V\u5de5\u4e1a\u4f01\u4e1a\u5e94\u4ea4\u589e\u503c\u7a0e
p4604
sVdbcode
p4605
Vhgyd
p4606
sVpid
p4607
VA020L
p4608
sVisParent
p4609
I00
sVwdcode
p4610
Vzb
p4611
sVid
p4612
VA020L0H
p4613
sasg137
(lp4614
g0
(g1
g2
Ntp4615
Rp4616
(dp4617
g6
I01
sg7
g4412
sg9
g10
sg11
g4421
sg12
Nsg13
(lp4618
sg137
(lp4619
sbag0
(g1
g2
Ntp4620
Rp4621
(dp4622
g6
I01
sg7
g4424
sg9
g10
sg11
g4433
sg12
Nsg13
(lp4623
sg137
(lp4624
sbag0
(g1
g2
Ntp4625
Rp4626
(dp4627
g6
I01
sg7
g4436
sg9
g10
sg11
g4445
sg12
Nsg13
(lp4628
sg137
(lp4629
sbag0
(g1
g2
Ntp4630
Rp4631
(dp4632
g6
I01
sg7
g4448
sg9
g10
sg11
g4457
sg12
Nsg13
(lp4633
sg137
(lp4634
sbag0
(g1
g2
Ntp4635
Rp4636
(dp4637
g6
I01
sg7
g4460
sg9
g10
sg11
g4469
sg12
Nsg13
(lp4638
sg137
(lp4639
sbag0
(g1
g2
Ntp4640
Rp4641
(dp4642
g6
I01
sg7
g4472
sg9
g10
sg11
g4481
sg12
Nsg13
(lp4643
sg137
(lp4644
sbag0
(g1
g2
Ntp4645
Rp4646
(dp4647
g6
I01
sg7
g4484
sg9
g10
sg11
g4493
sg12
Nsg13
(lp4648
sg137
(lp4649
sbag0
(g1
g2
Ntp4650
Rp4651
(dp4652
g6
I01
sg7
g4496
sg9
g10
sg11
g4505
sg12
Nsg13
(lp4653
sg137
(lp4654
sbag0
(g1
g2
Ntp4655
Rp4656
(dp4657
g6
I01
sg7
g4508
sg9
g10
sg11
g4517
sg12
Nsg13
(lp4658
sg137
(lp4659
sbag0
(g1
g2
Ntp4660
Rp4661
(dp4662
g6
I01
sg7
g4520
sg9
g10
sg11
g4529
sg12
Nsg13
(lp4663
sg137
(lp4664
sbag0
(g1
g2
Ntp4665
Rp4666
(dp4667
g6
I01
sg7
g4532
sg9
g10
sg11
g4541
sg12
Nsg13
(lp4668
sg137
(lp4669
sbag0
(g1
g2
Ntp4670
Rp4671
(dp4672
g6
I01
sg7
g4544
sg9
g10
sg11
g4553
sg12
Nsg13
(lp4673
sg137
(lp4674
sbag0
(g1
g2
Ntp4675
Rp4676
(dp4677
g6
I01
sg7
g4556
sg9
g10
sg11
g4565
sg12
Nsg13
(lp4678
sg137
(lp4679
sbag0
(g1
g2
Ntp4680
Rp4681
(dp4682
g6
I01
sg7
g4568
sg9
g10
sg11
g4577
sg12
Nsg13
(lp4683
sg137
(lp4684
sbag0
(g1
g2
Ntp4685
Rp4686
(dp4687
g6
I01
sg7
g4580
sg9
g10
sg11
g4589
sg12
Nsg13
(lp4688
sg137
(lp4689
sbag0
(g1
g2
Ntp4690
Rp4691
(dp4692
g6
I01
sg7
g4592
sg9
g10
sg11
g4601
sg12
Nsg13
(lp4693
sg137
(lp4694
sbag0
(g1
g2
Ntp4695
Rp4696
(dp4697
g6
I01
sg7
g4604
sg9
g10
sg11
g4613
sg12
Nsg13
(lp4698
sg137
(lp4699
sbasbag0
(g1
g2
Ntp4700
Rp4701
(dp4702
g6
I00
sg7
g1376
sg9
g10
sg11
g1385
sg12
Nsg13
(lp4703
(dp4704
Vname
p4705
V\u5de5\u4e1a\u4f01\u4e1a\u5355\u4f4d\u6570
p4706
sVdbcode
p4707
Vhgyd
p4708
sVpid
p4709
VA020M
p4710
sVisParent
p4711
I00
sVwdcode
p4712
Vzb
p4713
sVid
p4714
VA020M01
p4715
sa(dp4716
Vname
p4717
V\u5de5\u4e1a\u4e8f\u635f\u4f01\u4e1a\u5355\u4f4d\u6570
p4718
sVdbcode
p4719
Vhgyd
p4720
sVpid
p4721
VA020M
p4722
sVisParent
p4723
I00
sVwdcode
p4724
Vzb
p4725
sVid
p4726
VA020M02
p4727
sa(dp4728
Vname
p4729
V\u5de5\u4e1a\u4f01\u4e1a\u6d41\u52a8\u8d44\u4ea7\u5408\u8ba1
p4730
sVdbcode
p4731
Vhgyd
p4732
sVpid
p4733
VA020M
p4734
sVisParent
p4735
I00
sVwdcode
p4736
Vzb
p4737
sVid
p4738
VA020M03
p4739
sa(dp4740
Vname
p4741
V\u5de5\u4e1a\u4f01\u4e1a\u5e94\u6536\u5e10\u6b3e
p4742
sVdbcode
p4743
Vhgyd
p4744
sVpid
p4745
VA020M
p4746
sVisParent
p4747
I00
sVwdcode
p4748
Vzb
p4749
sVid
p4750
VA020M04
p4751
sa(dp4752
Vname
p4753
V\u5de5\u4e1a\u4f01\u4e1a\u5b58\u8d27
p4754
sVdbcode
p4755
Vhgyd
p4756
sVpid
p4757
VA020M
p4758
sVisParent
p4759
I00
sVwdcode
p4760
Vzb
p4761
sVid
p4762
VA020M05
p4763
sa(dp4764
Vname
p4765
V\u5de5\u4e1a\u4f01\u4e1a\u4ea7\u6210\u54c1\u5b58\u8d27
p4766
sVdbcode
p4767
Vhgyd
p4768
sVpid
p4769
VA020M
p4770
sVisParent
p4771
I00
sVwdcode
p4772
Vzb
p4773
sVid
p4774
VA020M06
p4775
sa(dp4776
Vname
p4777
V\u5de5\u4e1a\u4f01\u4e1a\u8d44\u4ea7\u603b\u8ba1
p4778
sVdbcode
p4779
Vhgyd
p4780
sVpid
p4781
VA020M
p4782
sVisParent
p4783
I00
sVwdcode
p4784
Vzb
p4785
sVid
p4786
VA020M07
p4787
sa(dp4788
Vname
p4789
V\u5de5\u4e1a\u4f01\u4e1a\u8d1f\u503a\u5408\u8ba1
p4790
sVdbcode
p4791
Vhgyd
p4792
sVpid
p4793
VA020M
p4794
sVisParent
p4795
I00
sVwdcode
p4796
Vzb
p4797
sVid
p4798
VA020M08
p4799
sa(dp4800
Vname
p4801
V\u5de5\u4e1a\u4f01\u4e1a\u4e3b\u8425\u4e1a\u52a1\u6536\u5165
p4802
sVdbcode
p4803
Vhgyd
p4804
sVpid
p4805
VA020M
p4806
sVisParent
p4807
I00
sVwdcode
p4808
Vzb
p4809
sVid
p4810
VA020M09
p4811
sa(dp4812
Vname
p4813
V\u5de5\u4e1a\u4f01\u4e1a\u4e3b\u8425\u4e1a\u52a1\u6210\u672c
p4814
sVdbcode
p4815
Vhgyd
p4816
sVpid
p4817
VA020M
p4818
sVisParent
p4819
I00
sVwdcode
p4820
Vzb
p4821
sVid
p4822
VA020M0A
p4823
sa(dp4824
Vname
p4825
V\u5de5\u4e1a\u4f01\u4e1a\u4e3b\u8425\u4e1a\u52a1\u7a0e\u91d1\u53ca\u9644\u52a0
p4826
sVdbcode
p4827
Vhgyd
p4828
sVpid
p4829
VA020M
p4830
sVisParent
p4831
I00
sVwdcode
p4832
Vzb
p4833
sVid
p4834
VA020M0B
p4835
sa(dp4836
Vname
p4837
V\u5de5\u4e1a\u4f01\u4e1a\u9500\u552e\u8d39\u7528
p4838
sVdbcode
p4839
Vhgyd
p4840
sVpid
p4841
VA020M
p4842
sVisParent
p4843
I00
sVwdcode
p4844
Vzb
p4845
sVid
p4846
VA020M0C
p4847
sa(dp4848
Vname
p4849
V\u5de5\u4e1a\u4f01\u4e1a\u7ba1\u7406\u8d39\u7528
p4850
sVdbcode
p4851
Vhgyd
p4852
sVpid
p4853
VA020M
p4854
sVisParent
p4855
I00
sVwdcode
p4856
Vzb
p4857
sVid
p4858
VA020M0D
p4859
sa(dp4860
Vname
p4861
V\u5de5\u4e1a\u4f01\u4e1a\u8d22\u52a1\u8d39\u7528
p4862
sVdbcode
p4863
Vhgyd
p4864
sVpid
p4865
VA020M
p4866
sVisParent
p4867
I00
sVwdcode
p4868
Vzb
p4869
sVid
p4870
VA020M0E
p4871
sa(dp4872
Vname
p4873
V\u5de5\u4e1a\u4f01\u4e1a\u5229\u606f\u652f\u51fa
p4874
sVdbcode
p4875
Vhgyd
p4876
sVpid
p4877
VA020M
p4878
sVisParent
p4879
I00
sVwdcode
p4880
Vzb
p4881
sVid
p4882
VA020M0F
p4883
sa(dp4884
Vname
p4885
V\u5de5\u4e1a\u4f01\u4e1a\u5229\u6da6\u603b\u989d
p4886
sVdbcode
p4887
Vhgyd
p4888
sVpid
p4889
VA020M
p4890
sVisParent
p4891
I00
sVwdcode
p4892
Vzb
p4893
sVid
p4894
VA020M0G
p4895
sa(dp4896
Vname
p4897
V\u5de5\u4e1a\u4e8f\u635f\u4f01\u4e1a\u4e8f\u635f\u603b\u989d
p4898
sVdbcode
p4899
Vhgyd
p4900
sVpid
p4901
VA020M
p4902
sVisParent
p4903
I00
sVwdcode
p4904
Vzb
p4905
sVid
p4906
VA020M0H
p4907
sa(dp4908
Vname
p4909
V\u5de5\u4e1a\u4f01\u4e1a\u5e94\u4ea4\u589e\u503c\u7a0e
p4910
sVdbcode
p4911
Vhgyd
p4912
sVpid
p4913
VA020M
p4914
sVisParent
p4915
I00
sVwdcode
p4916
Vzb
p4917
sVid
p4918
VA020M0I
p4919
sasg137
(lp4920
g0
(g1
g2
Ntp4921
Rp4922
(dp4923
g6
I01
sg7
g4706
sg9
g10
sg11
g4715
sg12
Nsg13
(lp4924
sg137
(lp4925
sbag0
(g1
g2
Ntp4926
Rp4927
(dp4928
g6
I01
sg7
g4718
sg9
g10
sg11
g4727
sg12
Nsg13
(lp4929
sg137
(lp4930
sbag0
(g1
g2
Ntp4931
Rp4932
(dp4933
g6
I01
sg7
g4730
sg9
g10
sg11
g4739
sg12
Nsg13
(lp4934
sg137
(lp4935
sbag0
(g1
g2
Ntp4936
Rp4937
(dp4938
g6
I01
sg7
g4742
sg9
g10
sg11
g4751
sg12
Nsg13
(lp4939
sg137
(lp4940
sbag0
(g1
g2
Ntp4941
Rp4942
(dp4943
g6
I01
sg7
g4754
sg9
g10
sg11
g4763
sg12
Nsg13
(lp4944
sg137
(lp4945
sbag0
(g1
g2
Ntp4946
Rp4947
(dp4948
g6
I01
sg7
g4766
sg9
g10
sg11
g4775
sg12
Nsg13
(lp4949
sg137
(lp4950
sbag0
(g1
g2
Ntp4951
Rp4952
(dp4953
g6
I01
sg7
g4778
sg9
g10
sg11
g4787
sg12
Nsg13
(lp4954
sg137
(lp4955
sbag0
(g1
g2
Ntp4956
Rp4957
(dp4958
g6
I01
sg7
g4790
sg9
g10
sg11
g4799
sg12
Nsg13
(lp4959
sg137
(lp4960
sbag0
(g1
g2
Ntp4961
Rp4962
(dp4963
g6
I01
sg7
g4802
sg9
g10
sg11
g4811
sg12
Nsg13
(lp4964
sg137
(lp4965
sbag0
(g1
g2
Ntp4966
Rp4967
(dp4968
g6
I01
sg7
g4814
sg9
g10
sg11
g4823
sg12
Nsg13
(lp4969
sg137
(lp4970
sbag0
(g1
g2
Ntp4971
Rp4972
(dp4973
g6
I01
sg7
g4826
sg9
g10
sg11
g4835
sg12
Nsg13
(lp4974
sg137
(lp4975
sbag0
(g1
g2
Ntp4976
Rp4977
(dp4978
g6
I01
sg7
g4838
sg9
g10
sg11
g4847
sg12
Nsg13
(lp4979
sg137
(lp4980
sbag0
(g1
g2
Ntp4981
Rp4982
(dp4983
g6
I01
sg7
g4850
sg9
g10
sg11
g4859
sg12
Nsg13
(lp4984
sg137
(lp4985
sbag0
(g1
g2
Ntp4986
Rp4987
(dp4988
g6
I01
sg7
g4862
sg9
g10
sg11
g4871
sg12
Nsg13
(lp4989
sg137
(lp4990
sbag0
(g1
g2
Ntp4991
Rp4992
(dp4993
g6
I01
sg7
g4874
sg9
g10
sg11
g4883
sg12
Nsg13
(lp4994
sg137
(lp4995
sbag0
(g1
g2
Ntp4996
Rp4997
(dp4998
g6
I01
sg7
g4886
sg9
g10
sg11
g4895
sg12
Nsg13
(lp4999
sg137
(lp5000
sbag0
(g1
g2
Ntp5001
Rp5002
(dp5003
g6
I01
sg7
g4898
sg9
g10
sg11
g4907
sg12
Nsg13
(lp5004
sg137
(lp5005
sbag0
(g1
g2
Ntp5006
Rp5007
(dp5008
g6
I01
sg7
g4910
sg9
g10
sg11
g4919
sg12
Nsg13
(lp5009
sg137
(lp5010
sbasbasbag0
(g1
g2
Ntp5011
Rp5012
(dp5013
g6
I00
sg7
g40
sg9
g10
sg11
g48
sg12
Nsg13
(lp5014
(dp5015
Vname
p5016
V\u56fa\u5b9a\u8d44\u4ea7\u6295\u8d44\u60c5\u51b5
p5017
sVdbcode
p5018
Vhgyd
p5019
sVpid
p5020
VA03
p5021
sVisParent
p5022
I00
sVwdcode
p5023
Vzb
p5024
sVid
p5025
VA0301
p5026
sa(dp5027
Vname
p5028
V\u6309\u8ba1\u5212\u7ba1\u7406\u6e20\u9053\u5206\u56fa\u5b9a\u8d44\u4ea7\u6295\u8d44
p5029
sVdbcode
p5030
Vhgyd
p5031
sVpid
p5032
VA03
p5033
sVisParent
p5034
I00
sVwdcode
p5035
Vzb
p5036
sVid
p5037
VA0302
p5038
sa(dp5039
Vname
p5040
V\u56fa\u5b9a\u8d44\u4ea7\u6295\u8d44\u8d44\u91d1\u6765\u6e90\u60c5\u51b5
p5041
sVdbcode
p5042
Vhgyd
p5043
sVpid
p5044
VA03
p5045
sVisParent
p5046
I00
sVwdcode
p5047
Vzb
p5048
sVid
p5049
VA0304
p5050
sa(dp5051
Vname
p5052
V\u6309\u884c\u4e1a\u5206\u56fa\u5b9a\u8d44\u4ea7\u6295\u8d44\u60c5\u51b5(1998-2003)
p5053
sVdbcode
p5054
Vhgyd
p5055
sVpid
p5056
VA03
p5057
sVisParent
p5058
I01
sVwdcode
p5059
Vzb
p5060
sVid
p5061
VA0305
p5062
sa(dp5063
Vname
p5064
V\u5206\u884c\u4e1a\u56fa\u5b9a\u8d44\u4ea7\u6295\u8d44\u60c5\u51b5(2004-2011)
p5065
sVdbcode
p5066
Vhgyd
p5067
sVpid
p5068
VA03
p5069
sVisParent
p5070
I01
sVwdcode
p5071
Vzb
p5072
sVid
p5073
VA0306
p5074
sa(dp5075
Vname
p5076
V\u5206\u884c\u4e1a\u56fa\u5b9a\u8d44\u4ea7\u6295\u8d44\u60c5\u51b5(2012-\u81f3\u4eca)
p5077
sVdbcode
p5078
Vhgyd
p5079
sVpid
p5080
VA03
p5081
sVisParent
p5082
I01
sVwdcode
p5083
Vzb
p5084
sVid
p5085
VA0307
p5086
sa(dp5087
Vname
p5088
V\u6309\u767b\u8bb0\u6ce8\u518c\u7c7b\u578b\u5206\u7684\u56fa\u5b9a\u8d44\u4ea7\u6295\u8d44\u60c5\u51b5
p5089
sVdbcode
p5090
Vhgyd
p5091
sVpid
p5092
VA03
p5093
sVisParent
p5094
I00
sVwdcode
p5095
Vzb
p5096
sVid
p5097
VA0308
p5098
sa(dp5099
Vname
p5100
V\u56fa\u5b9a\u8d44\u4ea7\u6295\u8d44\u4f4f\u5b85\u5efa\u8bbe\u60c5\u51b5
p5101
sVdbcode
p5102
Vhgyd
p5103
sVpid
p5104
VA03
p5105
sVisParent
p5106
I00
sVwdcode
p5107
Vzb
p5108
sVid
p5109
VA0309
p5110
sa(dp5111
Vname
p5112
V\u56fa\u5b9a\u8d44\u4ea7\u6295\u8d44\u9879\u76ee\u60c5\u51b5
p5113
sVdbcode
p5114
Vhgyd
p5115
sVpid
p5116
VA03
p5117
sVisParent
p5118
I00
sVwdcode
p5119
Vzb
p5120
sVid
p5121
VA030A
p5122
sa(dp5123
Vname
p5124
V\u56fa\u5b9a\u8d44\u4ea7\u6295\u8d44\u9879\u76ee\u8ba1\u5212\u603b\u6295\u8d44
p5125
sVdbcode
p5126
Vhgyd
p5127
sVpid
p5128
VA03
p5129
sVisParent
p5130
I00
sVwdcode
p5131
Vzb
p5132
sVid
p5133
VA030B
p5134
sa(dp5135
Vname
p5136
V\u6c11\u95f4\u56fa\u5b9a\u8d44\u4ea7\u6295\u8d44
p5137
sVdbcode
p5138
Vhgyd
p5139
sVpid
p5140
VA03
p5141
sVisParent
p5142
I00
sVwdcode
p5143
Vzb
p5144
sVid
p5145
VA030C
p5146
sa(dp5147
Vname
p5148
V\u6309\u884c\u4e1a\u5206\u6c11\u95f4\u56fa\u5b9a\u8d44\u4ea7\u6295\u8d44
p5149
sVdbcode
p5150
Vhgyd
p5151
sVpid
p5152
VA03
p5153
sVisParent
p5154
I00
sVwdcode
p5155
Vzb
p5156
sVid
p5157
VA030D
p5158
sasg137
(lp5159
g0
(g1
g2
Ntp5160
Rp5161
(dp5162
g6
I01
sg7
g5017
sg9
g10
sg11
g5026
sg12
Nsg13
(lp5163
sg137
(lp5164
sbag0
(g1
g2
Ntp5165
Rp5166
(dp5167
g6
I01
sg7
g5029
sg9
g10
sg11
g5038
sg12
Nsg13
(lp5168
sg137
(lp5169
sbag0
(g1
g2
Ntp5170
Rp5171
(dp5172
g6
I01
sg7
g5041
sg9
g10
sg11
g5050
sg12
Nsg13
(lp5173
sg137
(lp5174
sbag0
(g1
g2
Ntp5175
Rp5176
(dp5177
g6
I00
sg7
g5053
sg9
g10
sg11
g5062
sg12
Nsg13
(lp5178
(dp5179
Vname
p5180
V\u7b2c\u4e00\u4ea7\u4e1a\u56fa\u5b9a\u8d44\u4ea7\u6295\u8d44\u989d
p5181
sVdbcode
p5182
Vhgyd
p5183
sVpid
p5184
VA0305
p5185
sVisParent
p5186
I00
sVwdcode
p5187
Vzb
p5188
sVid
p5189
VA030501
p5190
sa(dp5191
Vname
p5192
V\u7b2c\u4e8c\u4ea7\u4e1a\u56fa\u5b9a\u8d44\u4ea7\u6295\u8d44\u989d
p5193
sVdbcode
p5194
Vhgyd
p5195
sVpid
p5196
VA0305
p5197
sVisParent
p5198
I00
sVwdcode
p5199
Vzb
p5200
sVid
p5201
VA030502
p5202
sa(dp5203
Vname
p5204
V\u7b2c\u4e09\u4ea7\u4e1a\u56fa\u5b9a\u8d44\u4ea7\u6295\u8d44\u989d
p5205
sVdbcode
p5206
Vhgyd
p5207
sVpid
p5208
VA0305
p5209
sVisParent
p5210
I00
sVwdcode
p5211
Vzb
p5212
sVid
p5213
VA030503
p5214
sasg137
(lp5215
g0
(g1
g2
Ntp5216
Rp5217
(dp5218
g6
I01
sg7
g5181
sg9
g10
sg11
g5190
sg12
Nsg13
(lp5219
sg137
(lp5220
sbag0
(g1
g2
Ntp5221
Rp5222
(dp5223
g6
I01
sg7
g5193
sg9
g10
sg11
g5202
sg12
Nsg13
(lp5224
sg137
(lp5225
sbag0
(g1
g2
Ntp5226
Rp5227
(dp5228
g6
I01
sg7
g5205
sg9
g10
sg11
g5214
sg12
Nsg13
(lp5229
sg137
(lp5230
sbasbag0
(g1
g2
Ntp5231
Rp5232
(dp5233
g6
I00
sg7
g5065
sg9
g10
sg11
g5074
sg12
Nsg13
(lp5234
(dp5235
Vname
p5236
V\u519c\u6797\u7267\u6e14\u4e1a\u56fa\u5b9a\u8d44\u4ea7\u6295\u8d44\u989d
p5237
sVdbcode
p5238
Vhgyd
p5239
sVpid
p5240
VA0306
p5241
sVisParent
p5242
I00
sVwdcode
p5243
Vzb
p5244
sVid
p5245
VA030601
p5246
sa(dp5247
Vname
p5248
V\u91c7\u77ff\u4e1a\u56fa\u5b9a\u8d44\u4ea7\u6295\u8d44\u989d
p5249
sVdbcode
p5250
Vhgyd
p5251
sVpid
p5252
VA0306
p5253
sVisParent
p5254
I00
sVwdcode
p5255
Vzb
p5256
sVid
p5257
VA030602
p5258
sa(dp5259
Vname
p5260
V\u5236\u9020\u4e1a\u56fa\u5b9a\u8d44\u4ea7\u6295\u8d44\u989d
p5261
sVdbcode
p5262
Vhgyd
p5263
sVpid
p5264
VA0306
p5265
sVisParent
p5266
I00
sVwdcode
p5267
Vzb
p5268
sVid
p5269
VA030603
p5270
sa(dp5271
Vname
p5272
V\u7535\u529b\u3001\u71c3\u6c14\u53ca\u6c34\u7684\u751f\u4ea7\u548c\u4f9b\u5e94\u4e1a\u56fa\u5b9a\u8d44\u4ea7\u6295\u8d44\u989d
p5273
sVdbcode
p5274
Vhgyd
p5275
sVpid
p5276
VA0306
p5277
sVisParent
p5278
I00
sVwdcode
p5279
Vzb
p5280
sVid
p5281
VA030604
p5282
sa(dp5283
Vname
p5284
V\u5efa\u7b51\u4e1a\u56fa\u5b9a\u8d44\u4ea7\u6295\u8d44\u989d
p5285
sVdbcode
p5286
Vhgyd
p5287
sVpid
p5288
VA0306
p5289
sVisParent
p5290
I00
sVwdcode
p5291
Vzb
p5292
sVid
p5293
VA030605
p5294
sa(dp5295
Vname
p5296
V\u4ea4\u901a\u8fd0\u8f93\u3001\u4ed3\u50a8\u548c\u90ae\u653f\u4e1a\u56fa\u5b9a\u8d44\u4ea7\u6295\u8d44\u989d
p5297
sVdbcode
p5298
Vhgyd
p5299
sVpid
p5300
VA0306
p5301
sVisParent
p5302
I00
sVwdcode
p5303
Vzb
p5304
sVid
p5305
VA030606
p5306
sa(dp5307
Vname
p5308
V\u4fe1\u606f\u4f20\u8f93\u3001\u8ba1\u7b97\u673a\u670d\u52a1\u548c\u8f6f\u4ef6\u4e1a\u56fa\u5b9a\u8d44\u4ea7\u6295\u8d44\u989d
p5309
sVdbcode
p5310
Vhgyd
p5311
sVpid
p5312
VA0306
p5313
sVisParent
p5314
I00
sVwdcode
p5315
Vzb
p5316
sVid
p5317
VA030607
p5318
sa(dp5319
Vname
p5320
V\u6279\u53d1\u548c\u96f6\u552e\u4e1a\u56fa\u5b9a\u8d44\u4ea7\u6295\u8d44\u989d
p5321
sVdbcode
p5322
Vhgyd
p5323
sVpid
p5324
VA0306
p5325
sVisParent
p5326
I00
sVwdcode
p5327
Vzb
p5328
sVid
p5329
VA030608
p5330
sa(dp5331
Vname
p5332
V\u4f4f\u5bbf\u548c\u9910\u996e\u4e1a\u56fa\u5b9a\u8d44\u4ea7\u6295\u8d44\u989d
p5333
sVdbcode
p5334
Vhgyd
p5335
sVpid
p5336
VA0306
p5337
sVisParent
p5338
I00
sVwdcode
p5339
Vzb
p5340
sVid
p5341
VA030609
p5342
sa(dp5343
Vname
p5344
V\u91d1\u878d\u4e1a\u56fa\u5b9a\u8d44\u4ea7\u6295\u8d44\u989d
p5345
sVdbcode
p5346
Vhgyd
p5347
sVpid
p5348
VA0306
p5349
sVisParent
p5350
I00
sVwdcode
p5351
Vzb
p5352
sVid
p5353
VA03060A
p5354
sa(dp5355
Vname
p5356
V\u623f\u5730\u4ea7\u4e1a\u56fa\u5b9a\u8d44\u4ea7\u6295\u8d44\u989d
p5357
sVdbcode
p5358
Vhgyd
p5359
sVpid
p5360
VA0306
p5361
sVisParent
p5362
I00
sVwdcode
p5363
Vzb
p5364
sVid
p5365
VA03060B
p5366
sa(dp5367
Vname
p5368
V\u79df\u8d41\u548c\u5546\u52a1\u670d\u52a1\u4e1a\u56fa\u5b9a\u8d44\u4ea7\u6295\u8d44\u989d
p5369
sVdbcode
p5370
Vhgyd
p5371
sVpid
p5372
VA0306
p5373
sVisParent
p5374
I00
sVwdcode
p5375
Vzb
p5376
sVid
p5377
VA03060C
p5378
sa(dp5379
Vname
p5380
V\u79d1\u5b66\u7814\u7a76\u3001\u6280\u672f\u670d\u52a1\u548c\u5730\u8d28\u52d8\u67e5\u4e1a\u56fa\u5b9a\u8d44\u4ea7\u6295\u8d44\u989d
p5381
sVdbcode
p5382
Vhgyd
p5383
sVpid
p5384
VA0306
p5385
sVisParent
p5386
I00
sVwdcode
p5387
Vzb
p5388
sVid
p5389
VA03060D
p5390
sa(dp5391
Vname
p5392
V\u6c34\u5229\u3001\u73af\u5883\u548c\u516c\u5171\u8bbe\u65bd\u7ba1\u7406\u4e1a\u56fa\u5b9a\u8d44\u4ea7\u6295\u8d44\u989d
p5393
sVdbcode
p5394
Vhgyd
p5395
sVpid
p5396
VA0306
p5397
sVisParent
p5398
I00
sVwdcode
p5399
Vzb
p5400
sVid
p5401
VA03060E
p5402
sa(dp5403
Vname
p5404
V\u5c45\u6c11\u670d\u52a1\u548c\u5176\u4ed6\u670d\u52a1\u4e1a\u56fa\u5b9a\u8d44\u4ea7\u6295\u8d44\u989d
p5405
sVdbcode
p5406
Vhgyd
p5407
sVpid
p5408
VA0306
p5409
sVisParent
p5410
I00
sVwdcode
p5411
Vzb
p5412
sVid
p5413
VA03060F
p5414
sa(dp5415
Vname
p5416
V\u6559\u80b2\u56fa\u5b9a\u8d44\u4ea7\u6295\u8d44\u989d
p5417
sVdbcode
p5418
Vhgyd
p5419
sVpid
p5420
VA0306
p5421
sVisParent
p5422
I00
sVwdcode
p5423
Vzb
p5424
sVid
p5425
VA03060G
p5426
sa(dp5427
Vname
p5428
V\u536b\u751f\u3001\u793e\u4f1a\u4fdd\u969c\u548c\u793e\u4f1a\u798f\u5229\u4e1a\u56fa\u5b9a\u8d44\u4ea7\u6295\u8d44\u989d
p5429
sVdbcode
p5430
Vhgyd
p5431
sVpid
p5432
VA0306
p5433
sVisParent
p5434
I00
sVwdcode
p5435
Vzb
p5436
sVid
p5437
VA03060H
p5438
sa(dp5439
Vname
p5440
V\u6587\u5316\u3001\u4f53\u80b2\u548c\u5a31\u4e50\u4e1a\u56fa\u5b9a\u8d44\u4ea7\u6295\u8d44\u989d
p5441
sVdbcode
p5442
Vhgyd
p5443
sVpid
p5444
VA0306
p5445
sVisParent
p5446
I00
sVwdcode
p5447
Vzb
p5448
sVid
p5449
VA03060I
p5450
sa(dp5451
Vname
p5452
V\u516c\u5171\u7ba1\u7406\u548c\u793e\u4f1a\u7ec4\u7ec7\u56fa\u5b9a\u8d44\u4ea7\u6295\u8d44\u989d
p5453
sVdbcode
p5454
Vhgyd
p5455
sVpid
p5456
VA0306
p5457
sVisParent
p5458
I00
sVwdcode
p5459
Vzb
p5460
sVid
p5461
VA03060J
p5462
sa(dp5463
Vname
p5464
V\u56fd\u9645\u7ec4\u7ec7\u56fa\u5b9a\u8d44\u4ea7\u6295\u8d44\u989d
p5465
sVdbcode
p5466
Vhgyd
p5467
sVpid
p5468
VA0306
p5469
sVisParent
p5470
I00
sVwdcode
p5471
Vzb
p5472
sVid
p5473
VA03060K
p5474
sasg137
(lp5475
g0
(g1
g2
Ntp5476
Rp5477
(dp5478
g6
I01
sg7
g5237
sg9
g10
sg11
g5246
sg12
Nsg13
(lp5479
sg137
(lp5480
sbag0
(g1
g2
Ntp5481
Rp5482
(dp5483
g6
I01
sg7
g5249
sg9
g10
sg11
g5258
sg12
Nsg13
(lp5484
sg137
(lp5485
sbag0
(g1
g2
Ntp5486
Rp5487
(dp5488
g6
I01
sg7
g5261
sg9
g10
sg11
g5270
sg12
Nsg13
(lp5489
sg137
(lp5490
sbag0
(g1
g2
Ntp5491
Rp5492
(dp5493
g6
I01
sg7
g5273
sg9
g10
sg11
g5282
sg12
Nsg13
(lp5494
sg137
(lp5495
sbag0
(g1
g2
Ntp5496
Rp5497
(dp5498
g6
I01
sg7
g5285
sg9
g10
sg11
g5294
sg12
Nsg13
(lp5499
sg137
(lp5500
sbag0
(g1
g2
Ntp5501
Rp5502
(dp5503
g6
I01
sg7
g5297
sg9
g10
sg11
g5306
sg12
Nsg13
(lp5504
sg137
(lp5505
sbag0
(g1
g2
Ntp5506
Rp5507
(dp5508
g6
I01
sg7
g5309
sg9
g10
sg11
g5318
sg12
Nsg13
(lp5509
sg137
(lp5510
sbag0
(g1
g2
Ntp5511
Rp5512
(dp5513
g6
I01
sg7
g5321
sg9
g10
sg11
g5330
sg12
Nsg13
(lp5514
sg137
(lp5515
sbag0
(g1
g2
Ntp5516
Rp5517
(dp5518
g6
I01
sg7
g5333
sg9
g10
sg11
g5342
sg12
Nsg13
(lp5519
sg137
(lp5520
sbag0
(g1
g2
Ntp5521
Rp5522
(dp5523
g6
I01
sg7
g5345
sg9
g10
sg11
g5354
sg12
Nsg13
(lp5524
sg137
(lp5525
sbag0
(g1
g2
Ntp5526
Rp5527
(dp5528
g6
I01
sg7
g5357
sg9
g10
sg11
g5366
sg12
Nsg13
(lp5529
sg137
(lp5530
sbag0
(g1
g2
Ntp5531
Rp5532
(dp5533
g6
I01
sg7
g5369
sg9
g10
sg11
g5378
sg12
Nsg13
(lp5534
sg137
(lp5535
sbag0
(g1
g2
Ntp5536
Rp5537
(dp5538
g6
I01
sg7
g5381
sg9
g10
sg11
g5390
sg12
Nsg13
(lp5539
sg137
(lp5540
sbag0
(g1
g2
Ntp5541
Rp5542
(dp5543
g6
I01
sg7
g5393
sg9
g10
sg11
g5402
sg12
Nsg13
(lp5544
sg137
(lp5545
sbag0
(g1
g2
Ntp5546
Rp5547
(dp5548
g6
I01
sg7
g5405
sg9
g10
sg11
g5414
sg12
Nsg13
(lp5549
sg137
(lp5550
sbag0
(g1
g2
Ntp5551
Rp5552
(dp5553
g6
I01
sg7
g5417
sg9
g10
sg11
g5426
sg12
Nsg13
(lp5554
sg137
(lp5555
sbag0
(g1
g2
Ntp5556
Rp5557
(dp5558
g6
I01
sg7
g5429
sg9
g10
sg11
g5438
sg12
Nsg13
(lp5559
sg137
(lp5560
sbag0
(g1
g2
Ntp5561
Rp5562
(dp5563
g6
I01
sg7
g5441
sg9
g10
sg11
g5450
sg12
Nsg13
(lp5564
sg137
(lp5565
sbag0
(g1
g2
Ntp5566
Rp5567
(dp5568
g6
I01
sg7
g5453
sg9
g10
sg11
g5462
sg12
Nsg13
(lp5569
sg137
(lp5570
sbag0
(g1
g2
Ntp5571
Rp5572
(dp5573
g6
I01
sg7
g5465
sg9
g10
sg11
g5474
sg12
Nsg13
(lp5574
sg137
(lp5575
sbasbag0
(g1
g2
Ntp5576
Rp5577
(dp5578
g6
I00
sg7
g5077
sg9
g10
sg11
g5086
sg12
Nsg13
(lp5579
(dp5580
Vname
p5581
V\u519c\u3001\u6797\u3001\u7267\u3001\u6e14\u4e1a\u56fa\u5b9a\u8d44\u4ea7\u6295\u8d44\u989d
p5582
sVdbcode
p5583
Vhgyd
p5584
sVpid
p5585
VA0307
p5586
sVisParent
p5587
I00
sVwdcode
p5588
Vzb
p5589
sVid
p5590
VA030701
p5591
sa(dp5592
Vname
p5593
V\u91c7\u77ff\u4e1a\u56fa\u5b9a\u8d44\u4ea7\u6295\u8d44\u989d
p5594
sVdbcode
p5595
Vhgyd
p5596
sVpid
p5597
VA0307
p5598
sVisParent
p5599
I00
sVwdcode
p5600
Vzb
p5601
sVid
p5602
VA030702
p5603
sa(dp5604
Vname
p5605
V\u5236\u9020\u4e1a\u56fa\u5b9a\u8d44\u4ea7\u6295\u8d44\u989d
p5606
sVdbcode
p5607
Vhgyd
p5608
sVpid
p5609
VA0307
p5610
sVisParent
p5611
I00
sVwdcode
p5612
Vzb
p5613
sVid
p5614
VA030703
p5615
sa(dp5616
Vname
p5617
V\u7535\u529b\u3001\u70ed\u529b\u3001\u71c3\u6c14\u53ca\u6c34\u7684\u751f\u4ea7\u548c\u4f9b\u5e94\u4e1a\u56fa\u5b9a\u8d44\u4ea7\u6295\u8d44\u989d
p5618
sVdbcode
p5619
Vhgyd
p5620
sVpid
p5621
VA0307
p5622
sVisParent
p5623
I00
sVwdcode
p5624
Vzb
p5625
sVid
p5626
VA030704
p5627
sa(dp5628
Vname
p5629
V\u5efa\u7b51\u4e1a\u56fa\u5b9a\u8d44\u4ea7\u6295\u8d44\u989d
p5630
sVdbcode
p5631
Vhgyd
p5632
sVpid
p5633
VA0307
p5634
sVisParent
p5635
I00
sVwdcode
p5636
Vzb
p5637
sVid
p5638
VA030705
p5639
sa(dp5640
Vname
p5641
V\u6279\u53d1\u548c\u96f6\u552e\u4e1a\u56fa\u5b9a\u8d44\u4ea7\u6295\u8d44\u989d
p5642
sVdbcode
p5643
Vhgyd
p5644
sVpid
p5645
VA0307
p5646
sVisParent
p5647
I00
sVwdcode
p5648
Vzb
p5649
sVid
p5650
VA030706
p5651
sa(dp5652
Vname
p5653
V\u4ea4\u901a\u8fd0\u8f93\u3001\u4ed3\u50a8\u548c\u90ae\u653f\u4e1a\u56fa\u5b9a\u8d44\u4ea7\u6295\u8d44\u989d
p5654
sVdbcode
p5655
Vhgyd
p5656
sVpid
p5657
VA0307
p5658
sVisParent
p5659
I00
sVwdcode
p5660
Vzb
p5661
sVid
p5662
VA030707
p5663
sa(dp5664
Vname
p5665
V\u4f4f\u5bbf\u548c\u9910\u996e\u4e1a\u56fa\u5b9a\u8d44\u4ea7\u6295\u8d44\u989d
p5666
sVdbcode
p5667
Vhgyd
p5668
sVpid
p5669
VA0307
p5670
sVisParent
p5671
I00
sVwdcode
p5672
Vzb
p5673
sVid
p5674
VA030708
p5675
sa(dp5676
Vname
p5677
V\u4fe1\u606f\u4f20\u8f93\u3001\u8f6f\u4ef6\u548c\u4fe1\u606f\u6280\u672f\u670d\u52a1\u4e1a\u56fa\u5b9a\u8d44\u4ea7\u6295\u8d44\u989d
p5678
sVdbcode
p5679
Vhgyd
p5680
sVpid
p5681
VA0307
p5682
sVisParent
p5683
I00
sVwdcode
p5684
Vzb
p5685
sVid
p5686
VA030709
p5687
sa(dp5688
Vname
p5689
V\u91d1\u878d\u4e1a\u56fa\u5b9a\u8d44\u4ea7\u6295\u8d44\u989d
p5690
sVdbcode
p5691
Vhgyd
p5692
sVpid
p5693
VA0307
p5694
sVisParent
p5695
I00
sVwdcode
p5696
Vzb
p5697
sVid
p5698
VA03070A
p5699
sa(dp5700
Vname
p5701
V\u623f\u5730\u4ea7\u4e1a\u56fa\u5b9a\u8d44\u4ea7\u6295\u8d44\u989d
p5702
sVdbcode
p5703
Vhgyd
p5704
sVpid
p5705
VA0307
p5706
sVisParent
p5707
I00
sVwdcode
p5708
Vzb
p5709
sVid
p5710
VA03070B
p5711
sa(dp5712
Vname
p5713
V\u79df\u8d41\u548c\u5546\u52a1\u670d\u52a1\u4e1a\u56fa\u5b9a\u8d44\u4ea7\u6295\u8d44\u989d
p5714
sVdbcode
p5715
Vhgyd
p5716
sVpid
p5717
VA0307
p5718
sVisParent
p5719
I00
sVwdcode
p5720
Vzb
p5721
sVid
p5722
VA03070C
p5723
sa(dp5724
Vname
p5725
V\u79d1\u5b66\u7814\u7a76\u3001\u6280\u672f\u670d\u52a1\u548c\u5730\u8d28\u52d8\u67e5\u4e1a\u56fa\u5b9a\u8d44\u4ea7\u6295\u8d44\u989d
p5726
sVdbcode
p5727
Vhgyd
p5728
sVpid
p5729
VA0307
p5730
sVisParent
p5731
I00
sVwdcode
p5732
Vzb
p5733
sVid
p5734
VA03070D
p5735
sa(dp5736
Vname
p5737
V\u6c34\u5229\u3001\u73af\u5883\u548c\u516c\u5171\u8bbe\u65bd\u7ba1\u7406\u4e1a\u56fa\u5b9a\u8d44\u4ea7\u6295\u8d44\u989d
p5738
sVdbcode
p5739
Vhgyd
p5740
sVpid
p5741
VA0307
p5742
sVisParent
p5743
I00
sVwdcode
p5744
Vzb
p5745
sVid
p5746
VA03070E
p5747
sa(dp5748
Vname
p5749
V\u5c45\u6c11\u670d\u52a1\u548c\u5176\u4ed6\u670d\u52a1\u4e1a\u56fa\u5b9a\u8d44\u4ea7\u6295\u8d44\u989d
p5750
sVdbcode
p5751
Vhgyd
p5752
sVpid
p5753
VA0307
p5754
sVisParent
p5755
I00
sVwdcode
p5756
Vzb
p5757
sVid
p5758
VA03070F
p5759
sa(dp5760
Vname
p5761
V\u6559\u80b2\u56fa\u5b9a\u8d44\u4ea7\u6295\u8d44\u989d
p5762
sVdbcode
p5763
Vhgyd
p5764
sVpid
p5765
VA0307
p5766
sVisParent
p5767
I00
sVwdcode
p5768
Vzb
p5769
sVid
p5770
VA03070G
p5771
sa(dp5772
Vname
p5773
V\u536b\u751f\u3001\u793e\u4f1a\u4fdd\u969c\u548c\u793e\u4f1a\u798f\u5229\u4e1a\u56fa\u5b9a\u8d44\u4ea7\u6295\u8d44\u989d
p5774
sVdbcode
p5775
Vhgyd
p5776
sVpid
p5777
VA0307
p5778
sVisParent
p5779
I00
sVwdcode
p5780
Vzb
p5781
sVid
p5782
VA03070H
p5783
sa(dp5784
Vname
p5785
V\u6587\u5316\u3001\u4f53\u80b2\u548c\u5a31\u4e50\u4e1a\u56fa\u5b9a\u8d44\u4ea7\u6295\u8d44\u989d
p5786
sVdbcode
p5787
Vhgyd
p5788
sVpid
p5789
VA0307
p5790
sVisParent
p5791
I00
sVwdcode
p5792
Vzb
p5793
sVid
p5794
VA03070I
p5795
sa(dp5796
Vname
p5797
V\u516c\u5171\u7ba1\u7406\u548c\u793e\u4f1a\u7ec4\u7ec7\u56fa\u5b9a\u8d44\u4ea7\u6295\u8d44\u989d
p5798
sVdbcode
p5799
Vhgyd
p5800
sVpid
p5801
VA0307
p5802
sVisParent
p5803
I00
sVwdcode
p5804
Vzb
p5805
sVid
p5806
VA03070J
p5807
sa(dp5808
Vname
p5809
V\u56fd\u9645\u7ec4\u7ec7\u56fa\u5b9a\u8d44\u4ea7\u6295\u8d44\u989d
p5810
sVdbcode
p5811
Vhgyd
p5812
sVpid
p5813
VA0307
p5814
sVisParent
p5815
I00
sVwdcode
p5816
Vzb
p5817
sVid
p5818
VA03070K
p5819
sasg137
(lp5820
g0
(g1
g2
Ntp5821
Rp5822
(dp5823
g6
I01
sg7
g5582
sg9
g10
sg11
g5591
sg12
Nsg13
(lp5824
sg137
(lp5825
sbag0
(g1
g2
Ntp5826
Rp5827
(dp5828
g6
I01
sg7
g5594
sg9
g10
sg11
g5603
sg12
Nsg13
(lp5829
sg137
(lp5830
sbag0
(g1
g2
Ntp5831
Rp5832
(dp5833
g6
I01
sg7
g5606
sg9
g10
sg11
g5615
sg12
Nsg13
(lp5834
sg137
(lp5835
sbag0
(g1
g2
Ntp5836
Rp5837
(dp5838
g6
I01
sg7
g5618
sg9
g10
sg11
g5627
sg12
Nsg13
(lp5839
sg137
(lp5840
sbag0
(g1
g2
Ntp5841
Rp5842
(dp5843
g6
I01
sg7
g5630
sg9
g10
sg11
g5639
sg12
Nsg13
(lp5844
sg137
(lp5845
sbag0
(g1
g2
Ntp5846
Rp5847
(dp5848
g6
I01
sg7
g5642
sg9
g10
sg11
g5651
sg12
Nsg13
(lp5849
sg137
(lp5850
sbag0
(g1
g2
Ntp5851
Rp5852
(dp5853
g6
I01
sg7
g5654
sg9
g10
sg11
g5663
sg12
Nsg13
(lp5854
sg137
(lp5855
sbag0
(g1
g2
Ntp5856
Rp5857
(dp5858
g6
I01
sg7
g5666
sg9
g10
sg11
g5675
sg12
Nsg13
(lp5859
sg137
(lp5860
sbag0
(g1
g2
Ntp5861
Rp5862
(dp5863
g6
I01
sg7
g5678
sg9
g10
sg11
g5687
sg12
Nsg13
(lp5864
sg137
(lp5865
sbag0
(g1
g2
Ntp5866
Rp5867
(dp5868
g6
I01
sg7
g5690
sg9
g10
sg11
g5699
sg12
Nsg13
(lp5869
sg137
(lp5870
sbag0
(g1
g2
Ntp5871
Rp5872
(dp5873
g6
I01
sg7
g5702
sg9
g10
sg11
g5711
sg12
Nsg13
(lp5874
sg137
(lp5875
sbag0
(g1
g2
Ntp5876
Rp5877
(dp5878
g6
I01
sg7
g5714
sg9
g10
sg11
g5723
sg12
Nsg13
(lp5879
sg137
(lp5880
sbag0
(g1
g2
Ntp5881
Rp5882
(dp5883
g6
I01
sg7
g5726
sg9
g10
sg11
g5735
sg12
Nsg13
(lp5884
sg137
(lp5885
sbag0
(g1
g2
Ntp5886
Rp5887
(dp5888
g6
I01
sg7
g5738
sg9
g10
sg11
g5747
sg12
Nsg13
(lp5889
sg137
(lp5890
sbag0
(g1
g2
Ntp5891
Rp5892
(dp5893
g6
I01
sg7
g5750
sg9
g10
sg11
g5759
sg12
Nsg13
(lp5894
sg137
(lp5895
sbag0
(g1
g2
Ntp5896
Rp5897
(dp5898
g6
I01
sg7
g5762
sg9
g10
sg11
g5771
sg12
Nsg13
(lp5899
sg137
(lp5900
sbag0
(g1
g2
Ntp5901
Rp5902
(dp5903
g6
I01
sg7
g5774
sg9
g10
sg11
g5783
sg12
Nsg13
(lp5904
sg137
(lp5905
sbag0
(g1
g2
Ntp5906
Rp5907
(dp5908
g6
I01
sg7
g5786
sg9
g10
sg11
g5795
sg12
Nsg13
(lp5909
sg137
(lp5910
sbag0
(g1
g2
Ntp5911
Rp5912
(dp5913
g6
I01
sg7
g5798
sg9
g10
sg11
g5807
sg12
Nsg13
(lp5914
sg137
(lp5915
sbag0
(g1
g2
Ntp5916
Rp5917
(dp5918
g6
I01
sg7
g5810
sg9
g10
sg11
g5819
sg12
Nsg13
(lp5919
sg137
(lp5920
sbasbag0
(g1
g2
Ntp5921
Rp5922
(dp5923
g6
I01
sg7
g5089
sg9
g10
sg11
g5098
sg12
Nsg13
(lp5924
sg137
(lp5925
sbag0
(g1
g2
Ntp5926
Rp5927
(dp5928
g6
I01
sg7
g5101
sg9
g10
sg11
g5110
sg12
Nsg13
(lp5929
sg137
(lp5930
sbag0
(g1
g2
Ntp5931
Rp5932
(dp5933
g6
I01
sg7
g5113
sg9
g10
sg11
g5122
sg12
Nsg13
(lp5934
sg137
(lp5935
sbag0
(g1
g2
Ntp5936
Rp5937
(dp5938
g6
I01
sg7
g5125
sg9
g10
sg11
g5134
sg12
Nsg13
(lp5939
sg137
(lp5940
sbag0
(g1
g2
Ntp5941
Rp5942
(dp5943
g6
I01
sg7
g5137
sg9
g10
sg11
g5146
sg12
Nsg13
(lp5944
sg137
(lp5945
sbag0
(g1
g2
Ntp5946
Rp5947
(dp5948
g6
I01
sg7
g5149
sg9
g10
sg11
g5158
sg12
Nsg13
(lp5949
sg137
(lp5950
sbasbag0
(g1
g2
Ntp5951
Rp5952
(dp5953
g6
I00
sg7
g51
sg9
g10
sg11
g59
sg12
Nsg13
(lp5954
(dp5955
Vname
p5956
V\u623f\u5730\u4ea7\u5f00\u53d1\u6295\u8d44\u60c5\u51b5
p5957
sVdbcode
p5958
Vhgyd
p5959
sVpid
p5960
VA04
p5961
sVisParent
p5962
I00
sVwdcode
p5963
Vzb
p5964
sVid
p5965
VA0401
p5966
sa(dp5967
Vname
p5968
V\u623f\u5730\u4ea7\u5f00\u53d1\u6295\u8d44\u8d44\u91d1\u6765\u6e90
p5969
sVdbcode
p5970
Vhgyd
p5971
sVpid
p5972
VA04
p5973
sVisParent
p5974
I00
sVwdcode
p5975
Vzb
p5976
sVid
p5977
VA0402
p5978
sa(dp5979
Vname
p5980
V\u623f\u5730\u4ea7\u571f\u5730\u5f00\u53d1\u4e0e\u9500\u552e\u60c5\u51b5
p5981
sVdbcode
p5982
Vhgyd
p5983
sVpid
p5984
VA04
p5985
sVisParent
p5986
I00
sVwdcode
p5987
Vzb
p5988
sVid
p5989
VA0403
p5990
sa(dp5991
Vname
p5992
V\u623f\u5730\u4ea7\u65bd\u5de5\u3001\u7ae3\u5de5\u9762\u79ef
p5993
sVdbcode
p5994
Vhgyd
p5995
sVpid
p5996
VA04
p5997
sVisParent
p5998
I00
sVwdcode
p5999
Vzb
p6000
sVid
p6001
VA0404
p6002
sa(dp6003
Vname
p6004
V\u5546\u54c1\u4f4f\u5b85\u65bd\u5de5\u3001\u7ae3\u5de5\u9762\u79ef
p6005
sVdbcode
p6006
Vhgyd
p6007
sVpid
p6008
VA04
p6009
sVisParent
p6010
I00
sVwdcode
p6011
Vzb
p6012
sVid
p6013
VA0405
p6014
sa(dp6015
Vname
p6016
V\u529e\u516c\u697c\u65bd\u5de5\u3001\u7ae3\u5de5\u9762\u79ef
p6017
sVdbcode
p6018
Vhgyd
p6019
sVpid
p6020
VA04
p6021
sVisParent
p6022
I00
sVwdcode
p6023
Vzb
p6024
sVid
p6025
VA0406
p6026
sa(dp6027
Vname
p6028
V\u5546\u4e1a\u8425\u4e1a\u7528\u623f\u65bd\u5de5\u3001\u7ae3\u5de5\u9762\u79ef
p6029
sVdbcode
p6030
Vhgyd
p6031
sVpid
p6032
VA04
p6033
sVisParent
p6034
I00
sVwdcode
p6035
Vzb
p6036
sVid
p6037
VA0407
p6038
sa(dp6039
Vname
p6040
V\u5546\u54c1\u623f\u9500\u552e\u9762\u79ef
p6041
sVdbcode
p6042
Vhgyd
p6043
sVpid
p6044
VA04
p6045
sVisParent
p6046
I00
sVwdcode
p6047
Vzb
p6048
sVid
p6049
VA0408
p6050
sa(dp6051
Vname
p6052
V\u5546\u54c1\u623f\u9500\u552e\u989d
p6053
sVdbcode
p6054
Vhgyd
p6055
sVpid
p6056
VA04
p6057
sVisParent
p6058
I00
sVwdcode
p6059
Vzb
p6060
sVid
p6061
VA0409
p6062
sa(dp6063
Vname
p6064
V\u5546\u54c1\u4f4f\u5b85\u9500\u552e\u9762\u79ef
p6065
sVdbcode
p6066
Vhgyd
p6067
sVpid
p6068
VA04
p6069
sVisParent
p6070
I00
sVwdcode
p6071
Vzb
p6072
sVid
p6073
VA040A
p6074
sa(dp6075
Vname
p6076
V\u5546\u54c1\u4f4f\u5b85\u9500\u552e\u989d
p6077
sVdbcode
p6078
Vhgyd
p6079
sVpid
p6080
VA04
p6081
sVisParent
p6082
I00
sVwdcode
p6083
Vzb
p6084
sVid
p6085
VA040B
p6086
sa(dp6087
Vname
p6088
V\u529e\u516c\u697c\u9500\u552e\u9762\u79ef
p6089
sVdbcode
p6090
Vhgyd
p6091
sVpid
p6092
VA04
p6093
sVisParent
p6094
I00
sVwdcode
p6095
Vzb
p6096
sVid
p6097
VA040C
p6098
sa(dp6099
Vname
p6100
V\u529e\u516c\u697c\u9500\u552e\u989d
p6101
sVdbcode
p6102
Vhgyd
p6103
sVpid
p6104
VA04
p6105
sVisParent
p6106
I00
sVwdcode
p6107
Vzb
p6108
sVid
p6109
VA040D
p6110
sa(dp6111
Vname
p6112
V\u5546\u4e1a\u8425\u4e1a\u7528\u623f\u9500\u552e\u9762\u79ef
p6113
sVdbcode
p6114
Vhgyd
p6115
sVpid
p6116
VA04
p6117
sVisParent
p6118
I00
sVwdcode
p6119
Vzb
p6120
sVid
p6121
VA040E
p6122
sa(dp6123
Vname
p6124
V\u5546\u4e1a\u8425\u4e1a\u7528\u623f\u9500\u552e\u989d
p6125
sVdbcode
p6126
Vhgyd
p6127
sVpid
p6128
VA04
p6129
sVisParent
p6130
I00
sVwdcode
p6131
Vzb
p6132
sVid
p6133
VA040F
p6134
sasg137
(lp6135
g0
(g1
g2
Ntp6136
Rp6137
(dp6138
g6
I01
sg7
g5957
sg9
g10
sg11
g5966
sg12
Nsg13
(lp6139
sg137
(lp6140
sbag0
(g1
g2
Ntp6141
Rp6142
(dp6143
g6
I01
sg7
g5969
sg9
g10
sg11
g5978
sg12
Nsg13
(lp6144
sg137
(lp6145
sbag0
(g1
g2
Ntp6146
Rp6147
(dp6148
g6
I01
sg7
g5981
sg9
g10
sg11
g5990
sg12
Nsg13
(lp6149
sg137
(lp6150
sbag0
(g1
g2
Ntp6151
Rp6152
(dp6153
g6
I01
sg7
g5993
sg9
g10
sg11
g6002
sg12
Nsg13
(lp6154
sg137
(lp6155
sbag0
(g1
g2
Ntp6156
Rp6157
(dp6158
g6
I01
sg7
g6005
sg9
g10
sg11
g6014
sg12
Nsg13
(lp6159
sg137
(lp6160
sbag0
(g1
g2
Ntp6161
Rp6162
(dp6163
g6
I01
sg7
g6017
sg9
g10
sg11
g6026
sg12
Nsg13
(lp6164
sg137
(lp6165
sbag0
(g1
g2
Ntp6166
Rp6167
(dp6168
g6
I01
sg7
g6029
sg9
g10
sg11
g6038
sg12
Nsg13
(lp6169
sg137
(lp6170
sbag0
(g1
g2
Ntp6171
Rp6172
(dp6173
g6
I01
sg7
g6041
sg9
g10
sg11
g6050
sg12
Nsg13
(lp6174
sg137
(lp6175
sbag0
(g1
g2
Ntp6176
Rp6177
(dp6178
g6
I01
sg7
g6053
sg9
g10
sg11
g6062
sg12
Nsg13
(lp6179
sg137
(lp6180
sbag0
(g1
g2
Ntp6181
Rp6182
(dp6183
g6
I01
sg7
g6065
sg9
g10
sg11
g6074
sg12
Nsg13
(lp6184
sg137
(lp6185
sbag0
(g1
g2
Ntp6186
Rp6187
(dp6188
g6
I01
sg7
g6077
sg9
g10
sg11
g6086
sg12
Nsg13
(lp6189
sg137
(lp6190
sbag0
(g1
g2
Ntp6191
Rp6192
(dp6193
g6
I01
sg7
g6089
sg9
g10
sg11
g6098
sg12
Nsg13
(lp6194
sg137
(lp6195
sbag0
(g1
g2
Ntp6196
Rp6197
(dp6198
g6
I01
sg7
g6101
sg9
g10
sg11
g6110
sg12
Nsg13
(lp6199
sg137
(lp6200
sbag0
(g1
g2
Ntp6201
Rp6202
(dp6203
g6
I01
sg7
g6113
sg9
g10
sg11
g6122
sg12
Nsg13
(lp6204
sg137
(lp6205
sbag0
(g1
g2
Ntp6206
Rp6207
(dp6208
g6
I01
sg7
g6125
sg9
g10
sg11
g6134
sg12
Nsg13
(lp6209
sg137
(lp6210
sbasbag0
(g1
g2
Ntp6211
Rp6212
(dp6213
g6
I00
sg7
g62
sg9
g10
sg11
g70
sg12
Nsg13
(lp6214
(dp6215
Vname
p6216
V\u793e\u4f1a\u6d88\u8d39\u54c1\u96f6\u552e\u603b\u989d
p6217
sVdbcode
p6218
Vhgyd
p6219
sVpid
p6220
VA05
p6221
sVisParent
p6222
I00
sVwdcode
p6223
Vzb
p6224
sVid
p6225
VA0501
p6226
sa(dp6227
Vname
p6228
V\u6309\u7ecf\u8425\u5730\u5206\u793e\u4f1a\u6d88\u8d39\u54c1\u96f6\u552e\u603b\u989d
p6229
sVdbcode
p6230
Vhgyd
p6231
sVpid
p6232
VA05
p6233
sVisParent
p6234
I00
sVwdcode
p6235
Vzb
p6236
sVid
p6237
VA0502
p6238
sa(dp6239
Vname
p6240
V\u6309\u6d88\u8d39\u5f62\u6001\u5206\u793e\u4f1a\u6d88\u8d39\u54c1\u96f6\u552e\u603b\u989d
p6241
sVdbcode
p6242
Vhgyd
p6243
sVpid
p6244
VA05
p6245
sVisParent
p6246
I00
sVwdcode
p6247
Vzb
p6248
sVid
p6249
VA0503
p6250
sa(dp6251
Vname
p6252
V\u9650\u4e0a\u5355\u4f4d\u5546\u54c1\u96f6\u552e\u7c7b\u503c
p6253
sVdbcode
p6254
Vhgyd
p6255
sVpid
p6256
VA05
p6257
sVisParent
p6258
I01
sVwdcode
p6259
Vzb
p6260
sVid
p6261
VA0505
p6262
sa(dp6263
Vname
p6264
V\u9650\u989d\u4ee5\u4e0a\u4f4f\u5bbf\u548c\u9910\u996e\u4e1a\u7ecf\u8425\u60c5\u51b5
p6265
sVdbcode
p6266
Vhgyd
p6267
sVpid
p6268
VA05
p6269
sVisParent
p6270
I00
sVwdcode
p6271
Vzb
p6272
sVid
p6273
VA0507
p6274
sasg137
(lp6275
g0
(g1
g2
Ntp6276
Rp6277
(dp6278
g6
I01
sg7
g6217
sg9
g10
sg11
g6226
sg12
Nsg13
(lp6279
sg137
(lp6280
sbag0
(g1
g2
Ntp6281
Rp6282
(dp6283
g6
I01
sg7
g6229
sg9
g10
sg11
g6238
sg12
Nsg13
(lp6284
sg137
(lp6285
sbag0
(g1
g2
Ntp6286
Rp6287
(dp6288
g6
I01
sg7
g6241
sg9
g10
sg11
g6250
sg12
Nsg13
(lp6289
sg137
(lp6290
sbag0
(g1
g2
Ntp6291
Rp6292
(dp6293
g6
I00
sg7
g6253
sg9
g10
sg11
g6262
sg12
Nsg13
(lp6294
(dp6295
Vname
p6296
V\u7cae\u6cb9\u3001\u98df\u54c1\u3001\u996e\u6599\u3001\u70df\u9152\u7c7b
p6297
sVdbcode
p6298
Vhgyd
p6299
sVpid
p6300
VA0505
p6301
sVisParent
p6302
I00
sVwdcode
p6303
Vzb
p6304
sVid
p6305
VA050501
p6306
sa(dp6307
Vname
p6308
V\u670d\u88c5\u978b\u5e3d\u3001\u9488\u3001\u7eba\u7ec7\u54c1\u7c7b
p6309
sVdbcode
p6310
Vhgyd
p6311
sVpid
p6312
VA0505
p6313
sVisParent
p6314
I00
sVwdcode
p6315
Vzb
p6316
sVid
p6317
VA050502
p6318
sa(dp6319
Vname
p6320
V\u5316\u5986\u54c1\u7c7b
p6321
sVdbcode
p6322
Vhgyd
p6323
sVpid
p6324
VA0505
p6325
sVisParent
p6326
I00
sVwdcode
p6327
Vzb
p6328
sVid
p6329
VA050503
p6330
sa(dp6331
Vname
p6332
V\u91d1\u94f6\u73e0\u5b9d\u7c7b
p6333
sVdbcode
p6334
Vhgyd
p6335
sVpid
p6336
VA0505
p6337
sVisParent
p6338
I00
sVwdcode
p6339
Vzb
p6340
sVid
p6341
VA050504
p6342
sa(dp6343
Vname
p6344
V\u65e5\u7528\u54c1\u7c7b
p6345
sVdbcode
p6346
Vhgyd
p6347
sVpid
p6348
VA0505
p6349
sVisParent
p6350
I00
sVwdcode
p6351
Vzb
p6352
sVid
p6353
VA050505
p6354
sa(dp6355
Vname
p6356
V\u4f53\u80b2\u3001\u5a31\u4e50\u7528\u54c1\u7c7b
p6357
sVdbcode
p6358
Vhgyd
p6359
sVpid
p6360
VA0505
p6361
sVisParent
p6362
I00
sVwdcode
p6363
Vzb
p6364
sVid
p6365
VA050506
p6366
sa(dp6367
Vname
p6368
V\u4e66\u62a5\u6742\u5fd7\u7c7b
p6369
sVdbcode
p6370
Vhgyd
p6371
sVpid
p6372
VA0505
p6373
sVisParent
p6374
I00
sVwdcode
p6375
Vzb
p6376
sVid
p6377
VA050507
p6378
sa(dp6379
Vname
p6380
V\u5bb6\u7528\u7535\u5668\u548c\u97f3\u50cf\u5668\u6750\u7c7b
p6381
sVdbcode
p6382
Vhgyd
p6383
sVpid
p6384
VA0505
p6385
sVisParent
p6386
I00
sVwdcode
p6387
Vzb
p6388
sVid
p6389
VA050508
p6390
sa(dp6391
Vname
p6392
V\u4e2d\u897f\u836f\u54c1\u7c7b
p6393
sVdbcode
p6394
Vhgyd
p6395
sVpid
p6396
VA0505
p6397
sVisParent
p6398
I00
sVwdcode
p6399
Vzb
p6400
sVid
p6401
VA050509
p6402
sa(dp6403
Vname
p6404
V\u6587\u5316\u529e\u516c\u7528\u54c1\u7c7b
p6405
sVdbcode
p6406
Vhgyd
p6407
sVpid
p6408
VA0505
p6409
sVisParent
p6410
I00
sVwdcode
p6411
Vzb
p6412
sVid
p6413
VA05050A
p6414
sa(dp6415
Vname
p6416
V\u5bb6\u5177\u7c7b
p6417
sVdbcode
p6418
Vhgyd
p6419
sVpid
p6420
VA0505
p6421
sVisParent
p6422
I00
sVwdcode
p6423
Vzb
p6424
sVid
p6425
VA05050B
p6426
sa(dp6427
Vname
p6428
V\u901a\u8baf\u5668\u6750\u7c7b
p6429
sVdbcode
p6430
Vhgyd
p6431
sVpid
p6432
VA0505
p6433
sVisParent
p6434
I00
sVwdcode
p6435
Vzb
p6436
sVid
p6437
VA05050C
p6438
sa(dp6439
Vname
p6440
V\u77f3\u6cb9\u53ca\u5236\u54c1\u7c7b
p6441
sVdbcode
p6442
Vhgyd
p6443
sVpid
p6444
VA0505
p6445
sVisParent
p6446
I00
sVwdcode
p6447
Vzb
p6448
sVid
p6449
VA05050D
p6450
sa(dp6451
Vname
p6452
V\u5efa\u7b51\u53ca\u88c5\u6f62\u6750\u6599\u7c7b
p6453
sVdbcode
p6454
Vhgyd
p6455
sVpid
p6456
VA0505
p6457
sVisParent
p6458
I00
sVwdcode
p6459
Vzb
p6460
sVid
p6461
VA05050E
p6462
sa(dp6463
Vname
p6464
V\u6c7d\u8f66\u7c7b
p6465
sVdbcode
p6466
Vhgyd
p6467
sVpid
p6468
VA0505
p6469
sVisParent
p6470
I00
sVwdcode
p6471
Vzb
p6472
sVid
p6473
VA05050F
p6474
sa(dp6475
Vname
p6476
V\u5176\u4ed6
p6477
sVdbcode
p6478
Vhgyd
p6479
sVpid
p6480
VA0505
p6481
sVisParent
p6482
I00
sVwdcode
p6483
Vzb
p6484
sVid
p6485
VA05050G
p6486
sasg137
(lp6487
g0
(g1
g2
Ntp6488
Rp6489
(dp6490
g6
I01
sg7
g6297
sg9
g10
sg11
g6306
sg12
Nsg13
(lp6491
sg137
(lp6492
sbag0
(g1
g2
Ntp6493
Rp6494
(dp6495
g6
I01
sg7
g6309
sg9
g10
sg11
g6318
sg12
Nsg13
(lp6496
sg137
(lp6497
sbag0
(g1
g2
Ntp6498
Rp6499
(dp6500
g6
I01
sg7
g6321
sg9
g10
sg11
g6330
sg12
Nsg13
(lp6501
sg137
(lp6502
sbag0
(g1
g2
Ntp6503
Rp6504
(dp6505
g6
I01
sg7
g6333
sg9
g10
sg11
g6342
sg12
Nsg13
(lp6506
sg137
(lp6507
sbag0
(g1
g2
Ntp6508
Rp6509
(dp6510
g6
I01
sg7
g6345
sg9
g10
sg11
g6354
sg12
Nsg13
(lp6511
sg137
(lp6512
sbag0
(g1
g2
Ntp6513
Rp6514
(dp6515
g6
I01
sg7
g6357
sg9
g10
sg11
g6366
sg12
Nsg13
(lp6516
sg137
(lp6517
sbag0
(g1
g2
Ntp6518
Rp6519
(dp6520
g6
I01
sg7
g6369
sg9
g10
sg11
g6378
sg12
Nsg13
(lp6521
sg137
(lp6522
sbag0
(g1
g2
Ntp6523
Rp6524
(dp6525
g6
I01
sg7
g6381
sg9
g10
sg11
g6390
sg12
Nsg13
(lp6526
sg137
(lp6527
sbag0
(g1
g2
Ntp6528
Rp6529
(dp6530
g6
I01
sg7
g6393
sg9
g10
sg11
g6402
sg12
Nsg13
(lp6531
sg137
(lp6532
sbag0
(g1
g2
Ntp6533
Rp6534
(dp6535
g6
I01
sg7
g6405
sg9
g10
sg11
g6414
sg12
Nsg13
(lp6536
sg137
(lp6537
sbag0
(g1
g2
Ntp6538
Rp6539
(dp6540
g6
I01
sg7
g6417
sg9
g10
sg11
g6426
sg12
Nsg13
(lp6541
sg137
(lp6542
sbag0
(g1
g2
Ntp6543
Rp6544
(dp6545
g6
I01
sg7
g6429
sg9
g10
sg11
g6438
sg12
Nsg13
(lp6546
sg137
(lp6547
sbag0
(g1
g2
Ntp6548
Rp6549
(dp6550
g6
I01
sg7
g6441
sg9
g10
sg11
g6450
sg12
Nsg13
(lp6551
sg137
(lp6552
sbag0
(g1
g2
Ntp6553
Rp6554
(dp6555
g6
I01
sg7
g6453
sg9
g10
sg11
g6462
sg12
Nsg13
(lp6556
sg137
(lp6557
sbag0
(g1
g2
Ntp6558
Rp6559
(dp6560
g6
I01
sg7
g6465
sg9
g10
sg11
g6474
sg12
Nsg13
(lp6561
sg137
(lp6562
sbag0
(g1
g2
Ntp6563
Rp6564
(dp6565
g6
I01
sg7
g6477
sg9
g10
sg11
g6486
sg12
Nsg13
(lp6566
sg137
(lp6567
sbasbag0
(g1
g2
Ntp6568
Rp6569
(dp6570
g6
I01
sg7
g6265
sg9
g10
sg11
g6274
sg12
Nsg13
(lp6571
sg137
(lp6572
sbasbag0
(g1
g2
Ntp6573
Rp6574
(dp6575
g6
I00
sg7
g73
sg9
g10
sg11
g81
sg12
Nsg13
(lp6576
(dp6577
Vname
p6578
V\u8fdb\u51fa\u53e3\u603b\u989d
p6579
sVdbcode
p6580
Vhgyd
p6581
sVpid
p6582
VA06
p6583
sVisParent
p6584
I00
sVwdcode
p6585
Vzb
p6586
sVid
p6587
VA0601
p6588
sa(dp6589
Vname
p6590
V\u5916\u5546\u76f4\u63a5\u6295\u8d44
p6591
sVdbcode
p6592
Vhgyd
p6593
sVpid
p6594
VA06
p6595
sVisParent
p6596
I00
sVwdcode
p6597
Vzb
p6598
sVid
p6599
VA0602
p6600
sasg137
(lp6601
g0
(g1
g2
Ntp6602
Rp6603
(dp6604
g6
I01
sg7
g6579
sg9
g10
sg11
g6588
sg12
Nsg13
(lp6605
sg137
(lp6606
sbag0
(g1
g2
Ntp6607
Rp6608
(dp6609
g6
I01
sg7
g6591
sg9
g10
sg11
g6600
sg12
Nsg13
(lp6610
sg137
(lp6611
sbasbag0
(g1
g2
Ntp6612
Rp6613
(dp6614
g6
I00
sg7
g84
sg9
g10
sg11
g92
sg12
Nsg13
(lp6615
(dp6616
Vname
p6617
V\u8d27\u7269\u8fd0\u8f93\u91cf
p6618
sVdbcode
p6619
Vhgyd
p6620
sVpid
p6621
VA07
p6622
sVisParent
p6623
I00
sVwdcode
p6624
Vzb
p6625
sVid
p6626
VA0701
p6627
sa(dp6628
Vname
p6629
V\u8d27\u7269\u5468\u8f6c\u91cf
p6630
sVdbcode
p6631
Vhgyd
p6632
sVpid
p6633
VA07
p6634
sVisParent
p6635
I00
sVwdcode
p6636
Vzb
p6637
sVid
p6638
VA0702
p6639
sa(dp6640
Vname
p6641
V\u65c5\u5ba2\u8fd0\u8f93\u91cf
p6642
sVdbcode
p6643
Vhgyd
p6644
sVpid
p6645
VA07
p6646
sVisParent
p6647
I00
sVwdcode
p6648
Vzb
p6649
sVid
p6650
VA0703
p6651
sa(dp6652
Vname
p6653
V\u65c5\u5ba2\u5468\u8f6c\u91cf
p6654
sVdbcode
p6655
Vhgyd
p6656
sVpid
p6657
VA07
p6658
sVisParent
p6659
I00
sVwdcode
p6660
Vzb
p6661
sVid
p6662
VA0704
p6663
sa(dp6664
Vname
p6665
V\u89c4\u6a21\u4ee5\u4e0a\u6e2f\u53e3\u541e\u5410\u91cf
p6666
sVdbcode
p6667
Vhgyd
p6668
sVpid
p6669
VA07
p6670
sVisParent
p6671
I00
sVwdcode
p6672
Vzb
p6673
sVid
p6674
VA0705
p6675
sasg137
(lp6676
g0
(g1
g2
Ntp6677
Rp6678
(dp6679
g6
I01
sg7
g6618
sg9
g10
sg11
g6627
sg12
Nsg13
(lp6680
sg137
(lp6681
sbag0
(g1
g2
Ntp6682
Rp6683
(dp6684
g6
I01
sg7
g6630
sg9
g10
sg11
g6639
sg12
Nsg13
(lp6685
sg137
(lp6686
sbag0
(g1
g2
Ntp6687
Rp6688
(dp6689
g6
I01
sg7
g6642
sg9
g10
sg11
g6651
sg12
Nsg13
(lp6690
sg137
(lp6691
sbag0
(g1
g2
Ntp6692
Rp6693
(dp6694
g6
I01
sg7
g6654
sg9
g10
sg11
g6663
sg12
Nsg13
(lp6695
sg137
(lp6696
sbag0
(g1
g2
Ntp6697
Rp6698
(dp6699
g6
I01
sg7
g6666
sg9
g10
sg11
g6675
sg12
Nsg13
(lp6700
sg137
(lp6701
sbasbag0
(g1
g2
Ntp6702
Rp6703
(dp6704
g6
I01
sg7
g95
sg9
g10
sg11
g103
sg12
Nsg13
(lp6705
sg137
(lp6706
sbag0
(g1
g2
Ntp6707
Rp6708
(dp6709
g6
I00
sg7
g106
sg9
g10
sg11
g114
sg12
Nsg13
(lp6710
(dp6711
Vname
p6712
V\u5236\u9020\u4e1a\u91c7\u8d2d\u7ecf\u7406\u6307\u6570
p6713
sVdbcode
p6714
Vhgyd
p6715
sVpid
p6716
VA09
p6717
sVisParent
p6718
I00
sVwdcode
p6719
Vzb
p6720
sVid
p6721
VA0901
p6722
sa(dp6723
Vname
p6724
V\u975e\u5236\u9020\u4e1a\u91c7\u8d2d\u7ecf\u7406\u6307\u6570
p6725
sVdbcode
p6726
Vhgyd
p6727
sVpid
p6728
VA09
p6729
sVisParent
p6730
I00
sVwdcode
p6731
Vzb
p6732
sVid
p6733
VA0902
p6734
sasg137
(lp6735
g0
(g1
g2
Ntp6736
Rp6737
(dp6738
g6
I01
sg7
g6713
sg9
g10
sg11
g6722
sg12
Nsg13
(lp6739
sg137
(lp6740
sbag0
(g1
g2
Ntp6741
Rp6742
(dp6743
g6
I01
sg7
g6725
sg9
g10
sg11
g6734
sg12
Nsg13
(lp6744
sg137
(lp6745
sbasbag0
(g1
g2
Ntp6746
Rp6747
(dp6748
g6
I00
sg7
g117
sg9
g10
sg11
g125
sg12
Nsg13
(lp6749
(dp6750
Vname
p6751
V\u56fd\u5bb6\u8d22\u653f\u9884\u7b97\u6536\u5165\u53ca\u652f\u51fa\u5b8c\u6210\u60c5\u51b5
p6752
sVdbcode
p6753
Vhgyd
p6754
sVpid
p6755
VA0A
p6756
sVisParent
p6757
I00
sVwdcode
p6758
Vzb
p6759
sVid
p6760
VA0A01
p6761
sasg137
(lp6762
g0
(g1
g2
Ntp6763
Rp6764
(dp6765
g6
I01
sg7
g6752
sg9
g10
sg11
g6761
sg12
Nsg13
(lp6766
sg137
(lp6767
sbasbag0
(g1
g2
Ntp6768
Rp6769
(dp6770
g6
I00
sg7
g128
sg9
g10
sg11
g136
sg12
Nsg13
(lp6771
(dp6772
Vname
p6773
V\u8d27\u5e01\u4f9b\u5e94\u91cf
p6774
sVdbcode
p6775
Vhgyd
p6776
sVpid
p6777
VA0B
p6778
sVisParent
p6779
I00
sVwdcode
p6780
Vzb
p6781
sVid
p6782
VA0B01
p6783
sasg137
(lp6784
g0
(g1
g2
Ntp6785
Rp6786
(dp6787
g6
I01
sg7
g6774
sg9
g10
sg11
g6783
sg12
Nsg13
(lp6788
sg137
(lp6789
sbasbasb.